	.file	"cli_chatbot.cpp"
	.text
	.section	.text$_ZNSt9exceptionC2Ev,"x"
	.linkonce discard
	.align 2
	.globl	_ZNSt9exceptionC2Ev
	.def	_ZNSt9exceptionC2Ev;	.scl	2;	.type	32;	.endef
	.seh_proc	_ZNSt9exceptionC2Ev
_ZNSt9exceptionC2Ev:
.LFB136:
	pushq	%rbp
	.seh_pushreg	%rbp
	movq	%rsp, %rbp
	.seh_setframe	%rbp, 0
	.seh_endprologue
	movq	%rcx, 16(%rbp)
	movq	.refptr._ZTVSt9exception(%rip), %rax
	leaq	16(%rax), %rdx
	movq	16(%rbp), %rax
	movq	%rdx, (%rax)
	nop
	popq	%rbp
	ret
	.seh_endproc
	.section	.text$_ZnwyPv,"x"
	.linkonce discard
	.globl	_ZnwyPv
	.def	_ZnwyPv;	.scl	2;	.type	32;	.endef
	.seh_proc	_ZnwyPv
_ZnwyPv:
.LFB159:
	pushq	%rbp
	.seh_pushreg	%rbp
	movq	%rsp, %rbp
	.seh_setframe	%rbp, 0
	.seh_endprologue
	movq	%rcx, 16(%rbp)
	movq	%rdx, 24(%rbp)
	movq	24(%rbp), %rax
	popq	%rbp
	ret
	.seh_endproc
	.section	.text$_ZdlPvS_,"x"
	.linkonce discard
	.globl	_ZdlPvS_
	.def	_ZdlPvS_;	.scl	2;	.type	32;	.endef
	.seh_proc	_ZdlPvS_
_ZdlPvS_:
.LFB161:
	pushq	%rbp
	.seh_pushreg	%rbp
	movq	%rsp, %rbp
	.seh_setframe	%rbp, 0
	.seh_endprologue
	movq	%rcx, 16(%rbp)
	movq	%rdx, 24(%rbp)
	nop
	popq	%rbp
	ret
	.seh_endproc
	.section	.text$_ZNSt11char_traitsIcE6assignERcRKc,"x"
	.linkonce discard
	.globl	_ZNSt11char_traitsIcE6assignERcRKc
	.def	_ZNSt11char_traitsIcE6assignERcRKc;	.scl	2;	.type	32;	.endef
	.seh_proc	_ZNSt11char_traitsIcE6assignERcRKc
_ZNSt11char_traitsIcE6assignERcRKc:
.LFB231:
	pushq	%rbp
	.seh_pushreg	%rbp
	movq	%rsp, %rbp
	.seh_setframe	%rbp, 0
	.seh_endprologue
	movq	%rcx, 16(%rbp)
	movq	%rdx, 24(%rbp)
	movq	24(%rbp), %rax
	movzbl	(%rax), %edx
	movq	16(%rbp), %rax
	movb	%dl, (%rax)
	nop
	popq	%rbp
	ret
	.seh_endproc
	.section	.text$_ZNSt11char_traitsIcE2ltERKcS2_,"x"
	.linkonce discard
	.globl	_ZNSt11char_traitsIcE2ltERKcS2_
	.def	_ZNSt11char_traitsIcE2ltERKcS2_;	.scl	2;	.type	32;	.endef
	.seh_proc	_ZNSt11char_traitsIcE2ltERKcS2_
_ZNSt11char_traitsIcE2ltERKcS2_:
.LFB233:
	pushq	%rbp
	.seh_pushreg	%rbp
	movq	%rsp, %rbp
	.seh_setframe	%rbp, 0
	.seh_endprologue
	movq	%rcx, 16(%rbp)
	movq	%rdx, 24(%rbp)
	movq	16(%rbp), %rax
	movzbl	(%rax), %eax
	movl	%eax, %edx
	movq	24(%rbp), %rax
	movzbl	(%rax), %eax
	cmpb	%al, %dl
	setb	%al
	popq	%rbp
	ret
	.seh_endproc
	.section	.text$_ZNSt11char_traitsIcE7compareEPKcS2_y,"x"
	.linkonce discard
	.globl	_ZNSt11char_traitsIcE7compareEPKcS2_y
	.def	_ZNSt11char_traitsIcE7compareEPKcS2_y;	.scl	2;	.type	32;	.endef
	.seh_proc	_ZNSt11char_traitsIcE7compareEPKcS2_y
_ZNSt11char_traitsIcE7compareEPKcS2_y:
.LFB234:
	pushq	%rbp
	.seh_pushreg	%rbp
	movq	%rsp, %rbp
	.seh_setframe	%rbp, 0
	subq	$48, %rsp
	.seh_stackalloc	48
	.seh_endprologue
	movq	%rcx, 16(%rbp)
	movq	%rdx, 24(%rbp)
	movq	%r8, 32(%rbp)
	cmpq	$0, 32(%rbp)
	jne	.L9
	movl	$0, %eax
	jmp	.L10
.L9:
	movl	$0, %eax
	testb	%al, %al
	je	.L12
	movq	$0, -8(%rbp)
	jmp	.L13
.L16:
	movq	24(%rbp), %rdx
	movq	-8(%rbp), %rax
	addq	%rax, %rdx
	movq	16(%rbp), %rcx
	movq	-8(%rbp), %rax
	addq	%rcx, %rax
	movq	%rax, %rcx
	call	_ZNSt11char_traitsIcE2ltERKcS2_
	testb	%al, %al
	je	.L14
	movl	$-1, %eax
	jmp	.L10
.L14:
	movq	16(%rbp), %rdx
	movq	-8(%rbp), %rax
	addq	%rax, %rdx
	movq	24(%rbp), %rcx
	movq	-8(%rbp), %rax
	addq	%rcx, %rax
	movq	%rax, %rcx
	call	_ZNSt11char_traitsIcE2ltERKcS2_
	testb	%al, %al
	je	.L15
	movl	$1, %eax
	jmp	.L10
.L15:
	addq	$1, -8(%rbp)
.L13:
	movq	-8(%rbp), %rax
	cmpq	32(%rbp), %rax
	jb	.L16
	movl	$0, %eax
	jmp	.L10
.L12:
	movq	32(%rbp), %rcx
	movq	24(%rbp), %rdx
	movq	16(%rbp), %rax
	movq	%rcx, %r8
	movq	%rax, %rcx
	call	memcmp
	nop
.L10:
	addq	$48, %rsp
	popq	%rbp
	ret
	.seh_endproc
	.section	.text$_ZNSt11char_traitsIcE6lengthEPKc,"x"
	.linkonce discard
	.globl	_ZNSt11char_traitsIcE6lengthEPKc
	.def	_ZNSt11char_traitsIcE6lengthEPKc;	.scl	2;	.type	32;	.endef
	.seh_proc	_ZNSt11char_traitsIcE6lengthEPKc
_ZNSt11char_traitsIcE6lengthEPKc:
.LFB235:
	pushq	%rbp
	.seh_pushreg	%rbp
	movq	%rsp, %rbp
	.seh_setframe	%rbp, 0
	subq	$32, %rsp
	.seh_stackalloc	32
	.seh_endprologue
	movq	%rcx, 16(%rbp)
	movl	$0, %eax
	testb	%al, %al
	je	.L19
	movq	16(%rbp), %rax
	movq	%rax, %rcx
	call	_ZN9__gnu_cxx11char_traitsIcE6lengthEPKc
	jmp	.L20
.L19:
	movq	16(%rbp), %rax
	movq	%rax, %rcx
	call	strlen
	nop
.L20:
	addq	$32, %rsp
	popq	%rbp
	ret
	.seh_endproc
	.section	.text$_ZNSt11char_traitsIcE4moveEPcPKcy,"x"
	.linkonce discard
	.globl	_ZNSt11char_traitsIcE4moveEPcPKcy
	.def	_ZNSt11char_traitsIcE4moveEPcPKcy;	.scl	2;	.type	32;	.endef
	.seh_proc	_ZNSt11char_traitsIcE4moveEPcPKcy
_ZNSt11char_traitsIcE4moveEPcPKcy:
.LFB237:
	pushq	%rbp
	.seh_pushreg	%rbp
	movq	%rsp, %rbp
	.seh_setframe	%rbp, 0
	subq	$32, %rsp
	.seh_stackalloc	32
	.seh_endprologue
	movq	%rcx, 16(%rbp)
	movq	%rdx, 24(%rbp)
	movq	%r8, 32(%rbp)
	cmpq	$0, 32(%rbp)
	jne	.L22
	movq	16(%rbp), %rax
	jmp	.L23
.L22:
	movq	32(%rbp), %rcx
	movq	24(%rbp), %rdx
	movq	16(%rbp), %rax
	movq	%rcx, %r8
	movq	%rax, %rcx
	call	memmove
	nop
.L23:
	addq	$32, %rsp
	popq	%rbp
	ret
	.seh_endproc
	.section	.text$_ZNSt11char_traitsIcE4copyEPcPKcy,"x"
	.linkonce discard
	.globl	_ZNSt11char_traitsIcE4copyEPcPKcy
	.def	_ZNSt11char_traitsIcE4copyEPcPKcy;	.scl	2;	.type	32;	.endef
	.seh_proc	_ZNSt11char_traitsIcE4copyEPcPKcy
_ZNSt11char_traitsIcE4copyEPcPKcy:
.LFB238:
	pushq	%rbp
	.seh_pushreg	%rbp
	movq	%rsp, %rbp
	.seh_setframe	%rbp, 0
	subq	$32, %rsp
	.seh_stackalloc	32
	.seh_endprologue
	movq	%rcx, 16(%rbp)
	movq	%rdx, 24(%rbp)
	movq	%r8, 32(%rbp)
	cmpq	$0, 32(%rbp)
	jne	.L25
	movq	16(%rbp), %rax
	jmp	.L26
.L25:
	movq	16(%rbp), %rdx
	movq	24(%rbp), %rax
	movq	%rdx, %rcx
	movq	%rax, %rdx
	movq	32(%rbp), %rax
	movq	%rax, %r8
	call	memcpy
	nop
.L26:
	addq	$32, %rsp
	popq	%rbp
	ret
	.seh_endproc
	.section	.text$_ZNSt11char_traitsIcE6assignEPcyc,"x"
	.linkonce discard
	.globl	_ZNSt11char_traitsIcE6assignEPcyc
	.def	_ZNSt11char_traitsIcE6assignEPcyc;	.scl	2;	.type	32;	.endef
	.seh_proc	_ZNSt11char_traitsIcE6assignEPcyc
_ZNSt11char_traitsIcE6assignEPcyc:
.LFB239:
	pushq	%rbp
	.seh_pushreg	%rbp
	movq	%rsp, %rbp
	.seh_setframe	%rbp, 0
	subq	$32, %rsp
	.seh_stackalloc	32
	.seh_endprologue
	movq	%rcx, 16(%rbp)
	movq	%rdx, 24(%rbp)
	movl	%r8d, %eax
	movb	%al, 32(%rbp)
	cmpq	$0, 24(%rbp)
	jne	.L28
	movq	16(%rbp), %rax
	jmp	.L29
.L28:
	movsbl	32(%rbp), %edx
	movq	24(%rbp), %rcx
	movq	16(%rbp), %rax
	movq	%rcx, %r8
	movq	%rax, %rcx
	call	memset
	nop
.L29:
	addq	$32, %rsp
	popq	%rbp
	ret
	.seh_endproc
	.section	.text$_ZNSt11char_traitsIcE12to_char_typeERKi,"x"
	.linkonce discard
	.globl	_ZNSt11char_traitsIcE12to_char_typeERKi
	.def	_ZNSt11char_traitsIcE12to_char_typeERKi;	.scl	2;	.type	32;	.endef
	.seh_proc	_ZNSt11char_traitsIcE12to_char_typeERKi
_ZNSt11char_traitsIcE12to_char_typeERKi:
.LFB240:
	pushq	%rbp
	.seh_pushreg	%rbp
	movq	%rsp, %rbp
	.seh_setframe	%rbp, 0
	.seh_endprologue
	movq	%rcx, 16(%rbp)
	movq	16(%rbp), %rax
	movl	(%rax), %eax
	popq	%rbp
	ret
	.seh_endproc
	.section	.text$_ZNSt11char_traitsIcE3eofEv,"x"
	.linkonce discard
	.globl	_ZNSt11char_traitsIcE3eofEv
	.def	_ZNSt11char_traitsIcE3eofEv;	.scl	2;	.type	32;	.endef
	.seh_proc	_ZNSt11char_traitsIcE3eofEv
_ZNSt11char_traitsIcE3eofEv:
.LFB243:
	pushq	%rbp
	.seh_pushreg	%rbp
	movq	%rsp, %rbp
	.seh_setframe	%rbp, 0
	.seh_endprologue
	movl	$-1, %eax
	popq	%rbp
	ret
	.seh_endproc
	.globl	_ZSt19piecewise_construct
	.section	.rdata$_ZSt19piecewise_construct,"dr"
	.linkonce same_size
_ZSt19piecewise_construct:
	.space 1
	.section	.text$_ZNKSt4hashIiEclEi,"x"
	.linkonce discard
	.align 2
	.globl	_ZNKSt4hashIiEclEi
	.def	_ZNKSt4hashIiEclEi;	.scl	2;	.type	32;	.endef
	.seh_proc	_ZNKSt4hashIiEclEi
_ZNKSt4hashIiEclEi:
.LFB1008:
	pushq	%rbp
	.seh_pushreg	%rbp
	movq	%rsp, %rbp
	.seh_setframe	%rbp, 0
	.seh_endprologue
	movq	%rcx, 16(%rbp)
	movl	%edx, 24(%rbp)
	movl	24(%rbp), %eax
	cltq
	popq	%rbp
	ret
	.seh_endproc
	.section	.text$_ZNSt10_Hash_impl4hashEPKvyy,"x"
	.linkonce discard
	.globl	_ZNSt10_Hash_impl4hashEPKvyy
	.def	_ZNSt10_Hash_impl4hashEPKvyy;	.scl	2;	.type	32;	.endef
	.seh_proc	_ZNSt10_Hash_impl4hashEPKvyy
_ZNSt10_Hash_impl4hashEPKvyy:
.LFB1017:
	pushq	%rbp
	.seh_pushreg	%rbp
	movq	%rsp, %rbp
	.seh_setframe	%rbp, 0
	subq	$32, %rsp
	.seh_stackalloc	32
	.seh_endprologue
	movq	%rcx, 16(%rbp)
	movq	%rdx, 24(%rbp)
	movq	%r8, 32(%rbp)
	movq	32(%rbp), %rcx
	movq	24(%rbp), %rdx
	movq	16(%rbp), %rax
	movq	%rcx, %r8
	movq	%rax, %rcx
	call	_ZSt11_Hash_bytesPKvyy
	addq	$32, %rsp
	popq	%rbp
	ret
	.seh_endproc
	.section	.text$strtod,"x"
	.linkonce discard
	.globl	strtod
	.def	strtod;	.scl	2;	.type	32;	.endef
	.seh_proc	strtod
strtod:
.LFB1322:
	pushq	%rbp
	.seh_pushreg	%rbp
	movq	%rsp, %rbp
	.seh_setframe	%rbp, 0
	subq	$32, %rsp
	.seh_stackalloc	32
	.seh_endprologue
	movq	%rcx, 16(%rbp)
	movq	%rdx, 24(%rbp)
	movq	24(%rbp), %rdx
	movq	16(%rbp), %rax
	movq	%rax, %rcx
	call	__mingw_strtod
	addq	$32, %rsp
	popq	%rbp
	ret
	.seh_endproc
	.section	.text$_ZZNSt7__cxx119to_stringEiENKUlPcyE_clES0_y,"x"
	.linkonce discard
	.align 2
	.globl	_ZZNSt7__cxx119to_stringEiENKUlPcyE_clES0_y
	.def	_ZZNSt7__cxx119to_stringEiENKUlPcyE_clES0_y;	.scl	2;	.type	32;	.endef
	.seh_proc	_ZZNSt7__cxx119to_stringEiENKUlPcyE_clES0_y
_ZZNSt7__cxx119to_stringEiENKUlPcyE_clES0_y:
.LFB1366:
	pushq	%rbp
	.seh_pushreg	%rbp
	movq	%rsp, %rbp
	.seh_setframe	%rbp, 0
	subq	$32, %rsp
	.seh_stackalloc	32
	.seh_endprologue
	movq	%rcx, 16(%rbp)
	movq	%rdx, 24(%rbp)
	movq	%r8, 32(%rbp)
	movq	24(%rbp), %rax
	movb	$45, (%rax)
	movq	16(%rbp), %rax
	movl	8(%rax), %r8d
	movq	16(%rbp), %rax
	movl	4(%rax), %eax
	movq	16(%rbp), %rdx
	movzbl	(%rdx), %edx
	movzbl	%dl, %ecx
	movq	24(%rbp), %rdx
	addq	%rdx, %rcx
	movl	%eax, %edx
	call	_ZNSt8__detail18__to_chars_10_implIjEEvPcjT_
	movq	32(%rbp), %rax
	addq	$32, %rsp
	popq	%rbp
	ret
	.seh_endproc
	.section	.text$_ZNSt7__cxx119to_stringEi,"x"
	.linkonce discard
	.globl	_ZNSt7__cxx119to_stringEi
	.def	_ZNSt7__cxx119to_stringEi;	.scl	2;	.type	32;	.endef
	.seh_proc	_ZNSt7__cxx119to_stringEi
_ZNSt7__cxx119to_stringEi:
.LFB1363:
	pushq	%rbp
	.seh_pushreg	%rbp
	movq	%rsp, %rbp
	.seh_setframe	%rbp, 0
	subq	$80, %rsp
	.seh_stackalloc	80
	.seh_endprologue
	movq	%rcx, 16(%rbp)
	movl	%edx, 24(%rbp)
	movl	24(%rbp), %eax
	shrl	$31, %eax
	movb	%al, -5(%rbp)
	cmpb	$0, -5(%rbp)
	je	.L43
	movl	24(%rbp), %eax
	negl	%eax
	movl	%eax, -4(%rbp)
	jmp	.L44
.L43:
	movl	24(%rbp), %eax
	movl	%eax, -4(%rbp)
.L44:
	movl	-4(%rbp), %eax
	movl	$10, %edx
	movl	%eax, %ecx
	call	_ZNSt8__detail14__to_chars_lenIjEEjT_i
	movl	%eax, -12(%rbp)
	movq	16(%rbp), %rax
	movq	%rax, %rcx
	call	_ZNSt7__cxx1112basic_stringIcSt11char_traitsIcESaIcEEC1Ev
	movzbl	-5(%rbp), %eax
	movb	%al, -24(%rbp)
	movl	-12(%rbp), %eax
	movl	%eax, -20(%rbp)
	movl	-4(%rbp), %eax
	movl	%eax, -16(%rbp)
	movzbl	-5(%rbp), %edx
	movl	-12(%rbp), %eax
	addl	%edx, %eax
	movl	%eax, %ecx
	movq	-24(%rbp), %rax
	movq	%rax, -48(%rbp)
	movl	-16(%rbp), %eax
	movl	%eax, -40(%rbp)
	leaq	-48(%rbp), %rdx
	movq	16(%rbp), %rax
	movq	%rdx, %r8
	movq	%rcx, %rdx
	movq	%rax, %rcx
	call	_ZNSt7__cxx1112basic_stringIcSt11char_traitsIcESaIcEE22__resize_and_overwriteIZNS_9to_stringEiEUlPcyE_EEvyT_
	movq	16(%rbp), %rax
	addq	$80, %rsp
	popq	%rbp
	ret
	.seh_handler	__gxx_personality_seh0, @unwind, @except
	.seh_handlerdata
.LLSDA1363:
	.byte	0xff
	.byte	0xff
	.byte	0x1
	.uleb128 .LLSDACSE1363-.LLSDACSB1363
.LLSDACSB1363:
.LLSDACSE1363:
	.section	.text$_ZNSt7__cxx119to_stringEi,"x"
	.linkonce discard
	.seh_endproc
	.section	.text$_ZNSt8__detail14__to_chars_lenIjEEjT_i,"x"
	.linkonce discard
	.globl	_ZNSt8__detail14__to_chars_lenIjEEjT_i
	.def	_ZNSt8__detail14__to_chars_lenIjEEjT_i;	.scl	2;	.type	32;	.endef
	.seh_proc	_ZNSt8__detail14__to_chars_lenIjEEjT_i
_ZNSt8__detail14__to_chars_lenIjEEjT_i:
.LFB1368:
	pushq	%rbp
	.seh_pushreg	%rbp
	movq	%rsp, %rbp
	.seh_setframe	%rbp, 0
	subq	$16, %rsp
	.seh_stackalloc	16
	.seh_endprologue
	movl	%ecx, 16(%rbp)
	movl	%edx, 24(%rbp)
	movl	$1, -4(%rbp)
	movl	24(%rbp), %eax
	imull	%eax, %eax
	movl	%eax, -8(%rbp)
	movl	24(%rbp), %eax
	movl	-8(%rbp), %edx
	imull	%edx, %eax
	movl	%eax, -12(%rbp)
	movl	24(%rbp), %eax
	movl	-12(%rbp), %edx
	imull	%edx, %eax
	movl	%eax, -16(%rbp)
.L52:
	movl	24(%rbp), %eax
	cmpl	%eax, 16(%rbp)
	jnb	.L47
	movl	-4(%rbp), %eax
	jmp	.L48
.L47:
	movl	16(%rbp), %eax
	cmpl	-8(%rbp), %eax
	jnb	.L49
	movl	-4(%rbp), %eax
	addl	$1, %eax
	jmp	.L48
.L49:
	movl	16(%rbp), %eax
	cmpl	-12(%rbp), %eax
	jnb	.L50
	movl	-4(%rbp), %eax
	addl	$2, %eax
	jmp	.L48
.L50:
	movl	16(%rbp), %eax
	cmpl	-16(%rbp), %eax
	jnb	.L51
	movl	-4(%rbp), %eax
	addl	$3, %eax
	jmp	.L48
.L51:
	movl	16(%rbp), %eax
	movl	$0, %edx
	divl	-16(%rbp)
	movl	%eax, 16(%rbp)
	addl	$4, -4(%rbp)
	jmp	.L52
.L48:
	addq	$16, %rsp
	popq	%rbp
	ret
	.seh_endproc
	.section	.text$_ZNSt8__detail14__to_chars_lenIyEEjT_i,"x"
	.linkonce discard
	.globl	_ZNSt8__detail14__to_chars_lenIyEEjT_i
	.def	_ZNSt8__detail14__to_chars_lenIyEEjT_i;	.scl	2;	.type	32;	.endef
	.seh_proc	_ZNSt8__detail14__to_chars_lenIyEEjT_i
_ZNSt8__detail14__to_chars_lenIyEEjT_i:
.LFB1378:
	pushq	%rbp
	.seh_pushreg	%rbp
	movq	%rsp, %rbp
	.seh_setframe	%rbp, 0
	subq	$16, %rsp
	.seh_stackalloc	16
	.seh_endprologue
	movq	%rcx, 16(%rbp)
	movl	%edx, 24(%rbp)
	movl	$1, -4(%rbp)
	movl	24(%rbp), %eax
	imull	%eax, %eax
	movl	%eax, -8(%rbp)
	movl	24(%rbp), %eax
	movl	-8(%rbp), %edx
	imull	%edx, %eax
	movl	%eax, -12(%rbp)
	movl	24(%rbp), %eax
	movl	-12(%rbp), %edx
	imull	%edx, %eax
	movl	%eax, -16(%rbp)
.L59:
	movl	24(%rbp), %eax
	movl	%eax, %eax
	cmpq	%rax, 16(%rbp)
	jnb	.L54
	movl	-4(%rbp), %eax
	jmp	.L55
.L54:
	movl	-8(%rbp), %eax
	cmpq	%rax, 16(%rbp)
	jnb	.L56
	movl	-4(%rbp), %eax
	addl	$1, %eax
	jmp	.L55
.L56:
	movl	-12(%rbp), %eax
	cmpq	%rax, 16(%rbp)
	jnb	.L57
	movl	-4(%rbp), %eax
	addl	$2, %eax
	jmp	.L55
.L57:
	movl	-16(%rbp), %eax
	cmpq	%rax, 16(%rbp)
	jnb	.L58
	movl	-4(%rbp), %eax
	addl	$3, %eax
	jmp	.L55
.L58:
	movl	-16(%rbp), %ecx
	movq	16(%rbp), %rax
	movl	$0, %edx
	divq	%rcx
	movq	%rax, 16(%rbp)
	addl	$4, -4(%rbp)
	jmp	.L59
.L55:
	addq	$16, %rsp
	popq	%rbp
	ret
	.seh_endproc
	.section	.text$_ZZNSt7__cxx119to_stringEyENKUlPcyE_clES0_y,"x"
	.linkonce discard
	.align 2
	.globl	_ZZNSt7__cxx119to_stringEyENKUlPcyE_clES0_y
	.def	_ZZNSt7__cxx119to_stringEyENKUlPcyE_clES0_y;	.scl	2;	.type	32;	.endef
	.seh_proc	_ZZNSt7__cxx119to_stringEyENKUlPcyE_clES0_y
_ZZNSt7__cxx119to_stringEyENKUlPcyE_clES0_y:
.LFB1379:
	pushq	%rbp
	.seh_pushreg	%rbp
	movq	%rsp, %rbp
	.seh_setframe	%rbp, 0
	subq	$32, %rsp
	.seh_stackalloc	32
	.seh_endprologue
	movq	%rcx, 16(%rbp)
	movq	%rdx, 24(%rbp)
	movq	%r8, 32(%rbp)
	movq	16(%rbp), %rax
	movq	(%rax), %rdx
	movq	32(%rbp), %rax
	movl	%eax, %ecx
	movq	24(%rbp), %rax
	movq	%rdx, %r8
	movl	%ecx, %edx
	movq	%rax, %rcx
	call	_ZNSt8__detail18__to_chars_10_implIyEEvPcjT_
	movq	32(%rbp), %rax
	addq	$32, %rsp
	popq	%rbp
	ret
	.seh_endproc
	.section	.text$_ZNSt7__cxx119to_stringEy,"x"
	.linkonce discard
	.globl	_ZNSt7__cxx119to_stringEy
	.def	_ZNSt7__cxx119to_stringEy;	.scl	2;	.type	32;	.endef
	.seh_proc	_ZNSt7__cxx119to_stringEy
_ZNSt7__cxx119to_stringEy:
.LFB1377:
	pushq	%rbp
	.seh_pushreg	%rbp
	pushq	%rbx
	.seh_pushreg	%rbx
	subq	$56, %rsp
	.seh_stackalloc	56
	leaq	48(%rsp), %rbp
	.seh_setframe	%rbp, 48
	.seh_endprologue
	movq	%rcx, 32(%rbp)
	movq	%rdx, 40(%rbp)
	movq	40(%rbp), %rax
	movl	$10, %edx
	movq	%rax, %rcx
	call	_ZNSt8__detail14__to_chars_lenIyEEjT_i
	movl	%eax, -4(%rbp)
	movq	32(%rbp), %rax
	movq	%rax, %rcx
	call	_ZNSt7__cxx1112basic_stringIcSt11char_traitsIcESaIcEEC1Ev
	movq	40(%rbp), %rcx
	movl	-4(%rbp), %edx
	movq	32(%rbp), %rax
	movq	%rcx, %r8
	movq	%rax, %rcx
.LEHB0:
	call	_ZNSt7__cxx1112basic_stringIcSt11char_traitsIcESaIcEE22__resize_and_overwriteIZNS_9to_stringEyEUlPcyE_EEvyT_
.LEHE0:
	jmp	.L66
.L65:
	movq	%rax, %rbx
	movq	32(%rbp), %rax
	movq	%rax, %rcx
	call	_ZNSt7__cxx1112basic_stringIcSt11char_traitsIcESaIcEED1Ev
	movq	%rbx, %rax
	movq	%rax, %rcx
.LEHB1:
	call	_Unwind_Resume
.LEHE1:
.L66:
	movq	32(%rbp), %rax
	addq	$56, %rsp
	popq	%rbx
	popq	%rbp
	ret
	.seh_handler	__gxx_personality_seh0, @unwind, @except
	.seh_handlerdata
.LLSDA1377:
	.byte	0xff
	.byte	0xff
	.byte	0x1
	.uleb128 .LLSDACSE1377-.LLSDACSB1377
.LLSDACSB1377:
	.uleb128 .LEHB0-.LFB1377
	.uleb128 .LEHE0-.LEHB0
	.uleb128 .L65-.LFB1377
	.uleb128 0
	.uleb128 .LEHB1-.LFB1377
	.uleb128 .LEHE1-.LEHB1
	.uleb128 0
	.uleb128 0
.LLSDACSE1377:
	.section	.text$_ZNSt7__cxx119to_stringEy,"x"
	.linkonce discard
	.seh_endproc
	.section	.text$_ZStanSt12_Ios_IostateS_,"x"
	.linkonce discard
	.globl	_ZStanSt12_Ios_IostateS_
	.def	_ZStanSt12_Ios_IostateS_;	.scl	2;	.type	32;	.endef
	.seh_proc	_ZStanSt12_Ios_IostateS_
_ZStanSt12_Ios_IostateS_:
.LFB1793:
	pushq	%rbp
	.seh_pushreg	%rbp
	movq	%rsp, %rbp
	.seh_setframe	%rbp, 0
	.seh_endprologue
	movl	%ecx, 16(%rbp)
	movl	%edx, 24(%rbp)
	movl	16(%rbp), %eax
	andl	24(%rbp), %eax
	popq	%rbp
	ret
	.seh_endproc
	.section	.text$_ZStorSt12_Ios_IostateS_,"x"
	.linkonce discard
	.globl	_ZStorSt12_Ios_IostateS_
	.def	_ZStorSt12_Ios_IostateS_;	.scl	2;	.type	32;	.endef
	.seh_proc	_ZStorSt12_Ios_IostateS_
_ZStorSt12_Ios_IostateS_:
.LFB1794:
	pushq	%rbp
	.seh_pushreg	%rbp
	movq	%rsp, %rbp
	.seh_setframe	%rbp, 0
	.seh_endprologue
	movl	%ecx, 16(%rbp)
	movl	%edx, 24(%rbp)
	movl	16(%rbp), %eax
	orl	24(%rbp), %eax
	popq	%rbp
	ret
	.seh_endproc
	.section	.text$_ZNSt14_Bit_referenceC1EPmm,"x"
	.linkonce discard
	.align 2
	.globl	_ZNSt14_Bit_referenceC1EPmm
	.def	_ZNSt14_Bit_referenceC1EPmm;	.scl	2;	.type	32;	.endef
	.seh_proc	_ZNSt14_Bit_referenceC1EPmm
_ZNSt14_Bit_referenceC1EPmm:
.LFB2516:
	pushq	%rbp
	.seh_pushreg	%rbp
	movq	%rsp, %rbp
	.seh_setframe	%rbp, 0
	.seh_endprologue
	movq	%rcx, 16(%rbp)
	movq	%rdx, 24(%rbp)
	movl	%r8d, 32(%rbp)
	movq	16(%rbp), %rax
	movq	24(%rbp), %rdx
	movq	%rdx, (%rax)
	movq	16(%rbp), %rax
	movl	32(%rbp), %edx
	movl	%edx, 8(%rax)
	nop
	popq	%rbp
	ret
	.seh_endproc
	.section	.text$_ZNKSt14_Bit_referencecvbEv,"x"
	.linkonce discard
	.align 2
	.globl	_ZNKSt14_Bit_referencecvbEv
	.def	_ZNKSt14_Bit_referencecvbEv;	.scl	2;	.type	32;	.endef
	.seh_proc	_ZNKSt14_Bit_referencecvbEv
_ZNKSt14_Bit_referencecvbEv:
.LFB2517:
	pushq	%rbp
	.seh_pushreg	%rbp
	movq	%rsp, %rbp
	.seh_setframe	%rbp, 0
	.seh_endprologue
	movq	%rcx, 16(%rbp)
	movq	16(%rbp), %rax
	movq	(%rax), %rax
	movl	(%rax), %edx
	movq	16(%rbp), %rax
	movl	8(%rax), %eax
	andl	%edx, %eax
	testl	%eax, %eax
	setne	%al
	popq	%rbp
	ret
	.seh_endproc
	.section	.text$_ZNSt14_Bit_referenceaSEb,"x"
	.linkonce discard
	.align 2
	.globl	_ZNSt14_Bit_referenceaSEb
	.def	_ZNSt14_Bit_referenceaSEb;	.scl	2;	.type	32;	.endef
	.seh_proc	_ZNSt14_Bit_referenceaSEb
_ZNSt14_Bit_referenceaSEb:
.LFB2518:
	pushq	%rbp
	.seh_pushreg	%rbp
	movq	%rsp, %rbp
	.seh_setframe	%rbp, 0
	.seh_endprologue
	movq	%rcx, 16(%rbp)
	movl	%edx, %eax
	movb	%al, 24(%rbp)
	cmpb	$0, 24(%rbp)
	je	.L75
	movq	16(%rbp), %rax
	movq	(%rax), %rax
	movl	(%rax), %ecx
	movq	16(%rbp), %rax
	movl	8(%rax), %edx
	movq	16(%rbp), %rax
	movq	(%rax), %rax
	orl	%ecx, %edx
	movl	%edx, (%rax)
	jmp	.L76
.L75:
	movq	16(%rbp), %rax
	movq	(%rax), %rax
	movl	(%rax), %edx
	movq	16(%rbp), %rax
	movl	8(%rax), %eax
	notl	%eax
	movl	%eax, %ecx
	movq	16(%rbp), %rax
	movq	(%rax), %rax
	andl	%ecx, %edx
	movl	%edx, (%rax)
.L76:
	movq	16(%rbp), %rax
	popq	%rbp
	ret
	.seh_endproc
	.section	.text$_ZNSt14_Bit_referenceaSERKS_,"x"
	.linkonce discard
	.align 2
	.globl	_ZNSt14_Bit_referenceaSERKS_
	.def	_ZNSt14_Bit_referenceaSERKS_;	.scl	2;	.type	32;	.endef
	.seh_proc	_ZNSt14_Bit_referenceaSERKS_
_ZNSt14_Bit_referenceaSERKS_:
.LFB2519:
	pushq	%rbp
	.seh_pushreg	%rbp
	movq	%rsp, %rbp
	.seh_setframe	%rbp, 0
	subq	$32, %rsp
	.seh_stackalloc	32
	.seh_endprologue
	movq	%rcx, 16(%rbp)
	movq	%rdx, 24(%rbp)
	movq	24(%rbp), %rax
	movq	%rax, %rcx
	call	_ZNKSt14_Bit_referencecvbEv
	movzbl	%al, %edx
	movq	16(%rbp), %rax
	movq	%rax, %rcx
	call	_ZNSt14_Bit_referenceaSEb
	addq	$32, %rsp
	popq	%rbp
	ret
	.seh_endproc
	.section	.text$_ZNSt18_Bit_iterator_baseC2EPmj,"x"
	.linkonce discard
	.align 2
	.globl	_ZNSt18_Bit_iterator_baseC2EPmj
	.def	_ZNSt18_Bit_iterator_baseC2EPmj;	.scl	2;	.type	32;	.endef
	.seh_proc	_ZNSt18_Bit_iterator_baseC2EPmj
_ZNSt18_Bit_iterator_baseC2EPmj:
.LFB2528:
	pushq	%rbp
	.seh_pushreg	%rbp
	movq	%rsp, %rbp
	.seh_setframe	%rbp, 0
	.seh_endprologue
	movq	%rcx, 16(%rbp)
	movq	%rdx, 24(%rbp)
	movl	%r8d, 32(%rbp)
	movq	16(%rbp), %rax
	movq	24(%rbp), %rdx
	movq	%rdx, (%rax)
	movq	16(%rbp), %rax
	movl	32(%rbp), %edx
	movl	%edx, 8(%rax)
	nop
	popq	%rbp
	ret
	.seh_endproc
	.section	.text$_ZNSt18_Bit_iterator_base10_M_bump_upEv,"x"
	.linkonce discard
	.align 2
	.globl	_ZNSt18_Bit_iterator_base10_M_bump_upEv
	.def	_ZNSt18_Bit_iterator_base10_M_bump_upEv;	.scl	2;	.type	32;	.endef
	.seh_proc	_ZNSt18_Bit_iterator_base10_M_bump_upEv
_ZNSt18_Bit_iterator_base10_M_bump_upEv:
.LFB2530:
	pushq	%rbp
	.seh_pushreg	%rbp
	movq	%rsp, %rbp
	.seh_setframe	%rbp, 0
	subq	$16, %rsp
	.seh_stackalloc	16
	.seh_endprologue
	movq	%rcx, 16(%rbp)
	movq	16(%rbp), %rax
	movq	%rax, -8(%rbp)
	movq	-8(%rbp), %rax
	movl	8(%rax), %eax
	movl	%eax, -12(%rbp)
	cmpl	$31, -12(%rbp)
	nop
	movq	16(%rbp), %rax
	movl	8(%rax), %eax
	leal	1(%rax), %ecx
	movq	16(%rbp), %rdx
	movl	%ecx, 8(%rdx)
	cmpl	$31, %eax
	sete	%al
	testb	%al, %al
	je	.L85
	movq	16(%rbp), %rax
	movl	$0, 8(%rax)
	movq	16(%rbp), %rax
	movq	(%rax), %rax
	leaq	4(%rax), %rdx
	movq	16(%rbp), %rax
	movq	%rdx, (%rax)
.L85:
	nop
	addq	$16, %rsp
	popq	%rbp
	ret
	.seh_endproc
	.section	.text$_ZNSt18_Bit_iterator_base12_M_bump_downEv,"x"
	.linkonce discard
	.align 2
	.globl	_ZNSt18_Bit_iterator_base12_M_bump_downEv
	.def	_ZNSt18_Bit_iterator_base12_M_bump_downEv;	.scl	2;	.type	32;	.endef
	.seh_proc	_ZNSt18_Bit_iterator_base12_M_bump_downEv
_ZNSt18_Bit_iterator_base12_M_bump_downEv:
.LFB2531:
	pushq	%rbp
	.seh_pushreg	%rbp
	movq	%rsp, %rbp
	.seh_setframe	%rbp, 0
	subq	$16, %rsp
	.seh_stackalloc	16
	.seh_endprologue
	movq	%rcx, 16(%rbp)
	movq	16(%rbp), %rax
	movq	%rax, -8(%rbp)
	movq	-8(%rbp), %rax
	movl	8(%rax), %eax
	movl	%eax, -12(%rbp)
	cmpl	$31, -12(%rbp)
	nop
	movq	16(%rbp), %rax
	movl	8(%rax), %eax
	leal	-1(%rax), %ecx
	movq	16(%rbp), %rdx
	movl	%ecx, 8(%rdx)
	testl	%eax, %eax
	sete	%al
	testb	%al, %al
	je	.L90
	movq	16(%rbp), %rax
	movl	$31, 8(%rax)
	movq	16(%rbp), %rax
	movq	(%rax), %rax
	leaq	-4(%rax), %rdx
	movq	16(%rbp), %rax
	movq	%rdx, (%rax)
.L90:
	nop
	addq	$16, %rsp
	popq	%rbp
	ret
	.seh_endproc
	.section	.text$_ZNSt18_Bit_iterator_base7_M_incrEx,"x"
	.linkonce discard
	.align 2
	.globl	_ZNSt18_Bit_iterator_base7_M_incrEx
	.def	_ZNSt18_Bit_iterator_base7_M_incrEx;	.scl	2;	.type	32;	.endef
	.seh_proc	_ZNSt18_Bit_iterator_base7_M_incrEx
_ZNSt18_Bit_iterator_base7_M_incrEx:
.LFB2532:
	pushq	%rbp
	.seh_pushreg	%rbp
	movq	%rsp, %rbp
	.seh_setframe	%rbp, 0
	subq	$32, %rsp
	.seh_stackalloc	32
	.seh_endprologue
	movq	%rcx, 16(%rbp)
	movq	%rdx, 24(%rbp)
	movq	16(%rbp), %rax
	movq	%rax, -16(%rbp)
	movq	-16(%rbp), %rax
	movl	8(%rax), %eax
	movl	%eax, -20(%rbp)
	cmpl	$31, -20(%rbp)
	nop
	movq	16(%rbp), %rax
	movl	8(%rax), %eax
	movl	%eax, %edx
	movq	24(%rbp), %rax
	addq	%rdx, %rax
	movq	%rax, -8(%rbp)
	movq	16(%rbp), %rax
	movq	(%rax), %rdx
	movq	-8(%rbp), %rax
	leaq	31(%rax), %rcx
	testq	%rax, %rax
	cmovs	%rcx, %rax
	sarq	$5, %rax
	salq	$2, %rax
	addq	%rax, %rdx
	movq	16(%rbp), %rax
	movq	%rdx, (%rax)
	movq	-8(%rbp), %rdx
	movq	%rdx, %rax
	sarq	$63, %rax
	shrq	$59, %rax
	addq	%rax, %rdx
	andl	$31, %edx
	subq	%rax, %rdx
	movq	%rdx, -8(%rbp)
	cmpq	$0, -8(%rbp)
	jns	.L93
	addq	$32, -8(%rbp)
	movq	16(%rbp), %rax
	movq	(%rax), %rax
	leaq	-4(%rax), %rdx
	movq	16(%rbp), %rax
	movq	%rdx, (%rax)
.L93:
	movq	-8(%rbp), %rax
	movl	%eax, %edx
	movq	16(%rbp), %rax
	movl	%edx, 8(%rax)
	nop
	addq	$32, %rsp
	popq	%rbp
	ret
	.seh_endproc
	.section	.text$_ZSteqRKSt18_Bit_iterator_baseS1_,"x"
	.linkonce discard
	.globl	_ZSteqRKSt18_Bit_iterator_baseS1_
	.def	_ZSteqRKSt18_Bit_iterator_baseS1_;	.scl	2;	.type	32;	.endef
	.seh_proc	_ZSteqRKSt18_Bit_iterator_baseS1_
_ZSteqRKSt18_Bit_iterator_baseS1_:
.LFB2533:
	pushq	%rbp
	.seh_pushreg	%rbp
	movq	%rsp, %rbp
	.seh_setframe	%rbp, 0
	subq	$32, %rsp
	.seh_stackalloc	32
	.seh_endprologue
	movq	%rcx, 16(%rbp)
	movq	%rdx, 24(%rbp)
	movq	16(%rbp), %rax
	movq	%rax, -24(%rbp)
	movq	-24(%rbp), %rax
	movl	8(%rax), %eax
	movl	%eax, -28(%rbp)
	cmpl	$31, -28(%rbp)
	nop
	movq	24(%rbp), %rax
	movq	%rax, -8(%rbp)
	movq	-8(%rbp), %rax
	movl	8(%rax), %eax
	movl	%eax, -12(%rbp)
	cmpl	$31, -12(%rbp)
	nop
	movq	16(%rbp), %rax
	movq	(%rax), %rdx
	movq	24(%rbp), %rax
	movq	(%rax), %rax
	cmpq	%rax, %rdx
	jne	.L98
	movq	16(%rbp), %rax
	movl	8(%rax), %edx
	movq	24(%rbp), %rax
	movl	8(%rax), %eax
	cmpl	%eax, %edx
	jne	.L98
	movl	$1, %eax
	jmp	.L99
.L98:
	movl	$0, %eax
.L99:
	addq	$32, %rsp
	popq	%rbp
	ret
	.seh_endproc
	.section	.text$_ZStneRKSt18_Bit_iterator_baseS1_,"x"
	.linkonce discard
	.globl	_ZStneRKSt18_Bit_iterator_baseS1_
	.def	_ZStneRKSt18_Bit_iterator_baseS1_;	.scl	2;	.type	32;	.endef
	.seh_proc	_ZStneRKSt18_Bit_iterator_baseS1_
_ZStneRKSt18_Bit_iterator_baseS1_:
.LFB2535:
	pushq	%rbp
	.seh_pushreg	%rbp
	movq	%rsp, %rbp
	.seh_setframe	%rbp, 0
	subq	$32, %rsp
	.seh_stackalloc	32
	.seh_endprologue
	movq	%rcx, 16(%rbp)
	movq	%rdx, 24(%rbp)
	movq	24(%rbp), %rdx
	movq	16(%rbp), %rax
	movq	%rax, %rcx
	call	_ZSteqRKSt18_Bit_iterator_baseS1_
	xorl	$1, %eax
	addq	$32, %rsp
	popq	%rbp
	ret
	.seh_endproc
	.section	.text$_ZStmiRKSt18_Bit_iterator_baseS1_,"x"
	.linkonce discard
	.globl	_ZStmiRKSt18_Bit_iterator_baseS1_
	.def	_ZStmiRKSt18_Bit_iterator_baseS1_;	.scl	2;	.type	32;	.endef
	.seh_proc	_ZStmiRKSt18_Bit_iterator_baseS1_
_ZStmiRKSt18_Bit_iterator_baseS1_:
.LFB2539:
	pushq	%rbp
	.seh_pushreg	%rbp
	movq	%rsp, %rbp
	.seh_setframe	%rbp, 0
	subq	$32, %rsp
	.seh_stackalloc	32
	.seh_endprologue
	movq	%rcx, 16(%rbp)
	movq	%rdx, 24(%rbp)
	movq	16(%rbp), %rax
	movq	%rax, -24(%rbp)
	movq	-24(%rbp), %rax
	movl	8(%rax), %eax
	movl	%eax, -28(%rbp)
	cmpl	$31, -28(%rbp)
	nop
	movq	24(%rbp), %rax
	movq	%rax, -8(%rbp)
	movq	-8(%rbp), %rax
	movl	8(%rax), %eax
	movl	%eax, -12(%rbp)
	cmpl	$31, -12(%rbp)
	nop
	movq	16(%rbp), %rax
	movq	(%rax), %rdx
	movq	24(%rbp), %rax
	movq	(%rax), %rax
	subq	%rax, %rdx
	salq	$3, %rdx
	movq	16(%rbp), %rax
	movl	8(%rax), %eax
	movl	%eax, %eax
	addq	%rax, %rdx
	movq	24(%rbp), %rax
	movl	8(%rax), %eax
	movl	%eax, %ecx
	movq	%rdx, %rax
	subq	%rcx, %rax
	addq	$32, %rsp
	popq	%rbp
	ret
	.seh_endproc
	.section	.text$_ZNSt13_Bit_iteratorC1Ev,"x"
	.linkonce discard
	.align 2
	.globl	_ZNSt13_Bit_iteratorC1Ev
	.def	_ZNSt13_Bit_iteratorC1Ev;	.scl	2;	.type	32;	.endef
	.seh_proc	_ZNSt13_Bit_iteratorC1Ev
_ZNSt13_Bit_iteratorC1Ev:
.LFB2542:
	pushq	%rbp
	.seh_pushreg	%rbp
	movq	%rsp, %rbp
	.seh_setframe	%rbp, 0
	subq	$32, %rsp
	.seh_stackalloc	32
	.seh_endprologue
	movq	%rcx, 16(%rbp)
	movq	16(%rbp), %rax
	movl	$0, %r8d
	movl	$0, %edx
	movq	%rax, %rcx
	call	_ZNSt18_Bit_iterator_baseC2EPmj
	nop
	addq	$32, %rsp
	popq	%rbp
	ret
	.seh_endproc
	.section	.text$_ZNSt13_Bit_iteratorC1EPmj,"x"
	.linkonce discard
	.align 2
	.globl	_ZNSt13_Bit_iteratorC1EPmj
	.def	_ZNSt13_Bit_iteratorC1EPmj;	.scl	2;	.type	32;	.endef
	.seh_proc	_ZNSt13_Bit_iteratorC1EPmj
_ZNSt13_Bit_iteratorC1EPmj:
.LFB2545:
	pushq	%rbp
	.seh_pushreg	%rbp
	movq	%rsp, %rbp
	.seh_setframe	%rbp, 0
	subq	$32, %rsp
	.seh_stackalloc	32
	.seh_endprologue
	movq	%rcx, 16(%rbp)
	movq	%rdx, 24(%rbp)
	movl	%r8d, 32(%rbp)
	movq	16(%rbp), %rax
	movl	32(%rbp), %ecx
	movq	24(%rbp), %rdx
	movl	%ecx, %r8d
	movq	%rax, %rcx
	call	_ZNSt18_Bit_iterator_baseC2EPmj
	nop
	addq	$32, %rsp
	popq	%rbp
	ret
	.seh_endproc
	.section	.text$_ZNKSt13_Bit_iteratordeEv,"x"
	.linkonce discard
	.align 2
	.globl	_ZNKSt13_Bit_iteratordeEv
	.def	_ZNKSt13_Bit_iteratordeEv;	.scl	2;	.type	32;	.endef
	.seh_proc	_ZNKSt13_Bit_iteratordeEv
_ZNKSt13_Bit_iteratordeEv:
.LFB2547:
	pushq	%rbp
	.seh_pushreg	%rbp
	movq	%rsp, %rbp
	.seh_setframe	%rbp, 0
	subq	$48, %rsp
	.seh_stackalloc	48
	.seh_endprologue
	movq	%rcx, 16(%rbp)
	movq	%rdx, 24(%rbp)
	movq	24(%rbp), %rax
	movq	%rax, -8(%rbp)
	movq	-8(%rbp), %rax
	movl	8(%rax), %eax
	movl	%eax, -12(%rbp)
	cmpl	$31, -12(%rbp)
	nop
	movq	24(%rbp), %rax
	movl	8(%rax), %eax
	movl	$1, %edx
	movl	%eax, %ecx
	sall	%cl, %edx
	movl	%edx, %ecx
	movq	24(%rbp), %rax
	movq	(%rax), %rdx
	movq	16(%rbp), %rax
	movl	%ecx, %r8d
	movq	%rax, %rcx
	call	_ZNSt14_Bit_referenceC1EPmm
	movq	16(%rbp), %rax
	addq	$48, %rsp
	popq	%rbp
	ret
	.seh_endproc
	.section	.text$_ZNSt13_Bit_iteratorppEv,"x"
	.linkonce discard
	.align 2
	.globl	_ZNSt13_Bit_iteratorppEv
	.def	_ZNSt13_Bit_iteratorppEv;	.scl	2;	.type	32;	.endef
	.seh_proc	_ZNSt13_Bit_iteratorppEv
_ZNSt13_Bit_iteratorppEv:
.LFB2548:
	pushq	%rbp
	.seh_pushreg	%rbp
	movq	%rsp, %rbp
	.seh_setframe	%rbp, 0
	subq	$32, %rsp
	.seh_stackalloc	32
	.seh_endprologue
	movq	%rcx, 16(%rbp)
	movq	16(%rbp), %rax
	movq	%rax, %rcx
	call	_ZNSt18_Bit_iterator_base10_M_bump_upEv
	movq	16(%rbp), %rax
	addq	$32, %rsp
	popq	%rbp
	ret
	.seh_endproc
	.section	.text$_ZNSt13_Bit_iteratorppEi,"x"
	.linkonce discard
	.align 2
	.globl	_ZNSt13_Bit_iteratorppEi
	.def	_ZNSt13_Bit_iteratorppEi;	.scl	2;	.type	32;	.endef
	.seh_proc	_ZNSt13_Bit_iteratorppEi
_ZNSt13_Bit_iteratorppEi:
.LFB2549:
	pushq	%rbp
	.seh_pushreg	%rbp
	movq	%rsp, %rbp
	.seh_setframe	%rbp, 0
	subq	$32, %rsp
	.seh_stackalloc	32
	.seh_endprologue
	movq	%rcx, 16(%rbp)
	movq	%rdx, 24(%rbp)
	movl	%r8d, 32(%rbp)
	movq	16(%rbp), %rcx
	movq	24(%rbp), %rax
	movq	8(%rax), %rdx
	movq	(%rax), %rax
	movq	%rax, (%rcx)
	movq	%rdx, 8(%rcx)
	movq	24(%rbp), %rax
	movq	%rax, %rcx
	call	_ZNSt18_Bit_iterator_base10_M_bump_upEv
	nop
	movq	16(%rbp), %rax
	addq	$32, %rsp
	popq	%rbp
	ret
	.seh_endproc
	.section	.text$_ZNSt13_Bit_iteratormmEv,"x"
	.linkonce discard
	.align 2
	.globl	_ZNSt13_Bit_iteratormmEv
	.def	_ZNSt13_Bit_iteratormmEv;	.scl	2;	.type	32;	.endef
	.seh_proc	_ZNSt13_Bit_iteratormmEv
_ZNSt13_Bit_iteratormmEv:
.LFB2550:
	pushq	%rbp
	.seh_pushreg	%rbp
	movq	%rsp, %rbp
	.seh_setframe	%rbp, 0
	subq	$32, %rsp
	.seh_stackalloc	32
	.seh_endprologue
	movq	%rcx, 16(%rbp)
	movq	16(%rbp), %rax
	movq	%rax, %rcx
	call	_ZNSt18_Bit_iterator_base12_M_bump_downEv
	movq	16(%rbp), %rax
	addq	$32, %rsp
	popq	%rbp
	ret
	.seh_endproc
	.section	.text$_ZNSt13_Bit_iteratorpLEx,"x"
	.linkonce discard
	.align 2
	.globl	_ZNSt13_Bit_iteratorpLEx
	.def	_ZNSt13_Bit_iteratorpLEx;	.scl	2;	.type	32;	.endef
	.seh_proc	_ZNSt13_Bit_iteratorpLEx
_ZNSt13_Bit_iteratorpLEx:
.LFB2552:
	pushq	%rbp
	.seh_pushreg	%rbp
	movq	%rsp, %rbp
	.seh_setframe	%rbp, 0
	subq	$32, %rsp
	.seh_stackalloc	32
	.seh_endprologue
	movq	%rcx, 16(%rbp)
	movq	%rdx, 24(%rbp)
	movq	16(%rbp), %rax
	movq	24(%rbp), %rdx
	movq	%rax, %rcx
	call	_ZNSt18_Bit_iterator_base7_M_incrEx
	movq	16(%rbp), %rax
	addq	$32, %rsp
	popq	%rbp
	ret
	.seh_endproc
	.section	.text$_ZNSt13_Bit_iteratormIEx,"x"
	.linkonce discard
	.align 2
	.globl	_ZNSt13_Bit_iteratormIEx
	.def	_ZNSt13_Bit_iteratormIEx;	.scl	2;	.type	32;	.endef
	.seh_proc	_ZNSt13_Bit_iteratormIEx
_ZNSt13_Bit_iteratormIEx:
.LFB2553:
	pushq	%rbp
	.seh_pushreg	%rbp
	movq	%rsp, %rbp
	.seh_setframe	%rbp, 0
	subq	$32, %rsp
	.seh_stackalloc	32
	.seh_endprologue
	movq	%rcx, 16(%rbp)
	movq	%rdx, 24(%rbp)
	movq	24(%rbp), %rax
	negq	%rax
	movq	%rax, %rdx
	movq	16(%rbp), %rax
	movq	%rax, %rcx
	call	_ZNSt13_Bit_iteratorpLEx
	movq	16(%rbp), %rax
	addq	$32, %rsp
	popq	%rbp
	ret
	.seh_endproc
	.section	.text$_ZStplRKSt13_Bit_iteratorx,"x"
	.linkonce discard
	.globl	_ZStplRKSt13_Bit_iteratorx
	.def	_ZStplRKSt13_Bit_iteratorx;	.scl	2;	.type	32;	.endef
	.seh_proc	_ZStplRKSt13_Bit_iteratorx
_ZStplRKSt13_Bit_iteratorx:
.LFB2555:
	pushq	%rbp
	.seh_pushreg	%rbp
	movq	%rsp, %rbp
	.seh_setframe	%rbp, 0
	subq	$32, %rsp
	.seh_stackalloc	32
	.seh_endprologue
	movq	%rcx, 16(%rbp)
	movq	%rdx, 24(%rbp)
	movq	%r8, 32(%rbp)
	movq	16(%rbp), %rcx
	movq	24(%rbp), %rax
	movq	8(%rax), %rdx
	movq	(%rax), %rax
	movq	%rax, (%rcx)
	movq	%rdx, 8(%rcx)
	movq	32(%rbp), %rdx
	movq	16(%rbp), %rax
	movq	%rax, %rcx
	call	_ZNSt13_Bit_iteratorpLEx
	nop
	movq	16(%rbp), %rax
	addq	$32, %rsp
	popq	%rbp
	ret
	.seh_endproc
	.section	.text$_ZStmiRKSt13_Bit_iteratorx,"x"
	.linkonce discard
	.globl	_ZStmiRKSt13_Bit_iteratorx
	.def	_ZStmiRKSt13_Bit_iteratorx;	.scl	2;	.type	32;	.endef
	.seh_proc	_ZStmiRKSt13_Bit_iteratorx
_ZStmiRKSt13_Bit_iteratorx:
.LFB2557:
	pushq	%rbp
	.seh_pushreg	%rbp
	movq	%rsp, %rbp
	.seh_setframe	%rbp, 0
	subq	$32, %rsp
	.seh_stackalloc	32
	.seh_endprologue
	movq	%rcx, 16(%rbp)
	movq	%rdx, 24(%rbp)
	movq	%r8, 32(%rbp)
	movq	16(%rbp), %rcx
	movq	24(%rbp), %rax
	movq	8(%rax), %rdx
	movq	(%rax), %rax
	movq	%rax, (%rcx)
	movq	%rdx, 8(%rcx)
	movq	32(%rbp), %rdx
	movq	16(%rbp), %rax
	movq	%rax, %rcx
	call	_ZNSt13_Bit_iteratormIEx
	nop
	movq	16(%rbp), %rax
	addq	$32, %rsp
	popq	%rbp
	ret
	.seh_endproc
	.section	.text$_ZNSt19_Bit_const_iteratorC1EPmj,"x"
	.linkonce discard
	.align 2
	.globl	_ZNSt19_Bit_const_iteratorC1EPmj
	.def	_ZNSt19_Bit_const_iteratorC1EPmj;	.scl	2;	.type	32;	.endef
	.seh_proc	_ZNSt19_Bit_const_iteratorC1EPmj
_ZNSt19_Bit_const_iteratorC1EPmj:
.LFB2563:
	pushq	%rbp
	.seh_pushreg	%rbp
	movq	%rsp, %rbp
	.seh_setframe	%rbp, 0
	subq	$32, %rsp
	.seh_stackalloc	32
	.seh_endprologue
	movq	%rcx, 16(%rbp)
	movq	%rdx, 24(%rbp)
	movl	%r8d, 32(%rbp)
	movq	16(%rbp), %rax
	movl	32(%rbp), %ecx
	movq	24(%rbp), %rdx
	movl	%ecx, %r8d
	movq	%rax, %rcx
	call	_ZNSt18_Bit_iterator_baseC2EPmj
	nop
	addq	$32, %rsp
	popq	%rbp
	ret
	.seh_endproc
	.section	.text$_ZNSt19_Bit_const_iteratorC1ERKSt13_Bit_iterator,"x"
	.linkonce discard
	.align 2
	.globl	_ZNSt19_Bit_const_iteratorC1ERKSt13_Bit_iterator
	.def	_ZNSt19_Bit_const_iteratorC1ERKSt13_Bit_iterator;	.scl	2;	.type	32;	.endef
	.seh_proc	_ZNSt19_Bit_const_iteratorC1ERKSt13_Bit_iterator
_ZNSt19_Bit_const_iteratorC1ERKSt13_Bit_iterator:
.LFB2566:
	pushq	%rbp
	.seh_pushreg	%rbp
	movq	%rsp, %rbp
	.seh_setframe	%rbp, 0
	subq	$32, %rsp
	.seh_stackalloc	32
	.seh_endprologue
	movq	%rcx, 16(%rbp)
	movq	%rdx, 24(%rbp)
	movq	16(%rbp), %rax
	movq	24(%rbp), %rdx
	movl	8(%rdx), %ecx
	movq	24(%rbp), %rdx
	movq	(%rdx), %rdx
	movl	%ecx, %r8d
	movq	%rax, %rcx
	call	_ZNSt18_Bit_iterator_baseC2EPmj
	nop
	addq	$32, %rsp
	popq	%rbp
	ret
	.seh_endproc
	.section	.text$_ZNKSt19_Bit_const_iteratordeEv,"x"
	.linkonce discard
	.align 2
	.globl	_ZNKSt19_Bit_const_iteratordeEv
	.def	_ZNKSt19_Bit_const_iteratordeEv;	.scl	2;	.type	32;	.endef
	.seh_proc	_ZNKSt19_Bit_const_iteratordeEv
_ZNKSt19_Bit_const_iteratordeEv:
.LFB2568:
	pushq	%rbp
	.seh_pushreg	%rbp
	movq	%rsp, %rbp
	.seh_setframe	%rbp, 0
	subq	$64, %rsp
	.seh_stackalloc	64
	.seh_endprologue
	movq	%rcx, 16(%rbp)
	movq	16(%rbp), %rax
	movq	%rax, -8(%rbp)
	movq	-8(%rbp), %rax
	movl	8(%rax), %eax
	movl	%eax, -12(%rbp)
	cmpl	$31, -12(%rbp)
	nop
	movq	16(%rbp), %rax
	movl	8(%rax), %eax
	movl	$1, %edx
	movl	%eax, %ecx
	sall	%cl, %edx
	movl	%edx, %ecx
	movq	16(%rbp), %rax
	movq	(%rax), %rdx
	leaq	-32(%rbp), %rax
	movl	%ecx, %r8d
	movq	%rax, %rcx
	call	_ZNSt14_Bit_referenceC1EPmm
	leaq	-32(%rbp), %rax
	movq	%rax, %rcx
	call	_ZNKSt14_Bit_referencecvbEv
	addq	$64, %rsp
	popq	%rbp
	ret
	.seh_endproc
	.section	.text$_ZNSt19_Bit_const_iteratorppEv,"x"
	.linkonce discard
	.align 2
	.globl	_ZNSt19_Bit_const_iteratorppEv
	.def	_ZNSt19_Bit_const_iteratorppEv;	.scl	2;	.type	32;	.endef
	.seh_proc	_ZNSt19_Bit_const_iteratorppEv
_ZNSt19_Bit_const_iteratorppEv:
.LFB2569:
	pushq	%rbp
	.seh_pushreg	%rbp
	movq	%rsp, %rbp
	.seh_setframe	%rbp, 0
	subq	$32, %rsp
	.seh_stackalloc	32
	.seh_endprologue
	movq	%rcx, 16(%rbp)
	movq	16(%rbp), %rax
	movq	%rax, %rcx
	call	_ZNSt18_Bit_iterator_base10_M_bump_upEv
	movq	16(%rbp), %rax
	addq	$32, %rsp
	popq	%rbp
	ret
	.seh_endproc
	.section	.text$_ZNSt8__detail15_Hash_node_baseC2Ev,"x"
	.linkonce discard
	.align 2
	.globl	_ZNSt8__detail15_Hash_node_baseC2Ev
	.def	_ZNSt8__detail15_Hash_node_baseC2Ev;	.scl	2;	.type	32;	.endef
	.seh_proc	_ZNSt8__detail15_Hash_node_baseC2Ev
_ZNSt8__detail15_Hash_node_baseC2Ev:
.LFB2730:
	pushq	%rbp
	.seh_pushreg	%rbp
	movq	%rsp, %rbp
	.seh_setframe	%rbp, 0
	.seh_endprologue
	movq	%rcx, 16(%rbp)
	movq	16(%rbp), %rax
	movq	$0, (%rax)
	nop
	popq	%rbp
	ret
	.seh_endproc
	.section	.text$_ZNSt8__detail15_Hash_node_baseC1Ev,"x"
	.linkonce discard
	.align 2
	.globl	_ZNSt8__detail15_Hash_node_baseC1Ev
	.def	_ZNSt8__detail15_Hash_node_baseC1Ev;	.scl	2;	.type	32;	.endef
	.seh_proc	_ZNSt8__detail15_Hash_node_baseC1Ev
_ZNSt8__detail15_Hash_node_baseC1Ev:
.LFB2731:
	pushq	%rbp
	.seh_pushreg	%rbp
	movq	%rsp, %rbp
	.seh_setframe	%rbp, 0
	.seh_endprologue
	movq	%rcx, 16(%rbp)
	movq	16(%rbp), %rax
	movq	$0, (%rax)
	nop
	popq	%rbp
	ret
	.seh_endproc
	.section	.text$_ZNKSt8__detail18_Mod_range_hashingclEyy,"x"
	.linkonce discard
	.align 2
	.globl	_ZNKSt8__detail18_Mod_range_hashingclEyy
	.def	_ZNKSt8__detail18_Mod_range_hashingclEyy;	.scl	2;	.type	32;	.endef
	.seh_proc	_ZNKSt8__detail18_Mod_range_hashingclEyy
_ZNKSt8__detail18_Mod_range_hashingclEyy:
.LFB2764:
	pushq	%rbp
	.seh_pushreg	%rbp
	movq	%rsp, %rbp
	.seh_setframe	%rbp, 0
	.seh_endprologue
	movq	%rcx, 16(%rbp)
	movq	%rdx, 24(%rbp)
	movq	%r8, 32(%rbp)
	movq	24(%rbp), %rax
	movl	$0, %edx
	divq	32(%rbp)
	movq	%rdx, %rax
	popq	%rbp
	ret
	.seh_endproc
	.section	.text$_ZNSt8__detail20_Prime_rehash_policyC1Ef,"x"
	.linkonce discard
	.align 2
	.globl	_ZNSt8__detail20_Prime_rehash_policyC1Ef
	.def	_ZNSt8__detail20_Prime_rehash_policyC1Ef;	.scl	2;	.type	32;	.endef
	.seh_proc	_ZNSt8__detail20_Prime_rehash_policyC1Ef
_ZNSt8__detail20_Prime_rehash_policyC1Ef:
.LFB2767:
	pushq	%rbp
	.seh_pushreg	%rbp
	movq	%rsp, %rbp
	.seh_setframe	%rbp, 0
	.seh_endprologue
	movq	%rcx, 16(%rbp)
	movss	%xmm1, 24(%rbp)
	movq	16(%rbp), %rax
	movss	24(%rbp), %xmm0
	movss	%xmm0, (%rax)
	movq	16(%rbp), %rax
	movq	$0, 8(%rax)
	nop
	popq	%rbp
	ret
	.seh_endproc
	.section	.text$_ZNKSt8__detail20_Prime_rehash_policy8_M_stateEv,"x"
	.linkonce discard
	.align 2
	.globl	_ZNKSt8__detail20_Prime_rehash_policy8_M_stateEv
	.def	_ZNKSt8__detail20_Prime_rehash_policy8_M_stateEv;	.scl	2;	.type	32;	.endef
	.seh_proc	_ZNKSt8__detail20_Prime_rehash_policy8_M_stateEv
_ZNKSt8__detail20_Prime_rehash_policy8_M_stateEv:
.LFB2770:
	pushq	%rbp
	.seh_pushreg	%rbp
	movq	%rsp, %rbp
	.seh_setframe	%rbp, 0
	.seh_endprologue
	movq	%rcx, 16(%rbp)
	movq	16(%rbp), %rax
	movq	8(%rax), %rax
	popq	%rbp
	ret
	.seh_endproc
	.section	.text$_ZNSt8__detail20_Prime_rehash_policy8_M_resetEy,"x"
	.linkonce discard
	.align 2
	.globl	_ZNSt8__detail20_Prime_rehash_policy8_M_resetEy
	.def	_ZNSt8__detail20_Prime_rehash_policy8_M_resetEy;	.scl	2;	.type	32;	.endef
	.seh_proc	_ZNSt8__detail20_Prime_rehash_policy8_M_resetEy
_ZNSt8__detail20_Prime_rehash_policy8_M_resetEy:
.LFB2772:
	pushq	%rbp
	.seh_pushreg	%rbp
	movq	%rsp, %rbp
	.seh_setframe	%rbp, 0
	.seh_endprologue
	movq	%rcx, 16(%rbp)
	movq	%rdx, 24(%rbp)
	movq	16(%rbp), %rax
	movq	24(%rbp), %rdx
	movq	%rdx, 8(%rax)
	nop
	popq	%rbp
	ret
	.seh_endproc
	.section	.text$_ZSt3minIyERKT_S2_S2_,"x"
	.linkonce discard
	.globl	_ZSt3minIyERKT_S2_S2_
	.def	_ZSt3minIyERKT_S2_S2_;	.scl	2;	.type	32;	.endef
	.seh_proc	_ZSt3minIyERKT_S2_S2_
_ZSt3minIyERKT_S2_S2_:
.LFB2780:
	pushq	%rbp
	.seh_pushreg	%rbp
	movq	%rsp, %rbp
	.seh_setframe	%rbp, 0
	.seh_endprologue
	movq	%rcx, 16(%rbp)
	movq	%rdx, 24(%rbp)
	movq	24(%rbp), %rax
	movq	(%rax), %rdx
	movq	16(%rbp), %rax
	movq	(%rax), %rax
	cmpq	%rax, %rdx
	jnb	.L148
	movq	24(%rbp), %rax
	jmp	.L149
.L148:
	movq	16(%rbp), %rax
.L149:
	popq	%rbp
	ret
	.seh_endproc
	.section	.text$_ZNSt14numeric_limitsIxE3minEv,"x"
	.linkonce discard
	.globl	_ZNSt14numeric_limitsIxE3minEv
	.def	_ZNSt14numeric_limitsIxE3minEv;	.scl	2;	.type	32;	.endef
	.seh_proc	_ZNSt14numeric_limitsIxE3minEv
_ZNSt14numeric_limitsIxE3minEv:
.LFB3304:
	pushq	%rbp
	.seh_pushreg	%rbp
	movq	%rsp, %rbp
	.seh_setframe	%rbp, 0
	.seh_endprologue
	movabsq	$-9223372036854775808, %rax
	popq	%rbp
	ret
	.seh_endproc
	.section	.text$_ZNSt14numeric_limitsIxE3maxEv,"x"
	.linkonce discard
	.globl	_ZNSt14numeric_limitsIxE3maxEv
	.def	_ZNSt14numeric_limitsIxE3maxEv;	.scl	2;	.type	32;	.endef
	.seh_proc	_ZNSt14numeric_limitsIxE3maxEv
_ZNSt14numeric_limitsIxE3maxEv:
.LFB3305:
	pushq	%rbp
	.seh_pushreg	%rbp
	movq	%rsp, %rbp
	.seh_setframe	%rbp, 0
	.seh_endprologue
	movabsq	$9223372036854775807, %rax
	popq	%rbp
	ret
	.seh_endproc
	.section	.text$_ZNSt14numeric_limitsIyE3maxEv,"x"
	.linkonce discard
	.globl	_ZNSt14numeric_limitsIyE3maxEv
	.def	_ZNSt14numeric_limitsIyE3maxEv;	.scl	2;	.type	32;	.endef
	.seh_proc	_ZNSt14numeric_limitsIyE3maxEv
_ZNSt14numeric_limitsIyE3maxEv:
.LFB3314:
	pushq	%rbp
	.seh_pushreg	%rbp
	movq	%rsp, %rbp
	.seh_setframe	%rbp, 0
	.seh_endprologue
	movq	$-1, %rax
	popq	%rbp
	ret
	.seh_endproc
	.section	.text$_ZNSt6chrono8durationIxSt5ratioILx1ELx1000000000EEEC1IxvEERKT_,"x"
	.linkonce discard
	.align 2
	.globl	_ZNSt6chrono8durationIxSt5ratioILx1ELx1000000000EEEC1IxvEERKT_
	.def	_ZNSt6chrono8durationIxSt5ratioILx1ELx1000000000EEEC1IxvEERKT_;	.scl	2;	.type	32;	.endef
	.seh_proc	_ZNSt6chrono8durationIxSt5ratioILx1ELx1000000000EEEC1IxvEERKT_
_ZNSt6chrono8durationIxSt5ratioILx1ELx1000000000EEEC1IxvEERKT_:
.LFB3476:
	pushq	%rbp
	.seh_pushreg	%rbp
	movq	%rsp, %rbp
	.seh_setframe	%rbp, 0
	.seh_endprologue
	movq	%rcx, 16(%rbp)
	movq	%rdx, 24(%rbp)
	movq	24(%rbp), %rax
	movq	(%rax), %rdx
	movq	16(%rbp), %rax
	movq	%rdx, (%rax)
	nop
	popq	%rbp
	ret
	.seh_endproc
	.section	.text$_ZNKSt6chrono8durationIxSt5ratioILx1ELx1000000000EEE5countEv,"x"
	.linkonce discard
	.align 2
	.globl	_ZNKSt6chrono8durationIxSt5ratioILx1ELx1000000000EEE5countEv
	.def	_ZNKSt6chrono8durationIxSt5ratioILx1ELx1000000000EEE5countEv;	.scl	2;	.type	32;	.endef
	.seh_proc	_ZNKSt6chrono8durationIxSt5ratioILx1ELx1000000000EEE5countEv
_ZNKSt6chrono8durationIxSt5ratioILx1ELx1000000000EEE5countEv:
.LFB3478:
	pushq	%rbp
	.seh_pushreg	%rbp
	movq	%rsp, %rbp
	.seh_setframe	%rbp, 0
	.seh_endprologue
	movq	%rcx, 16(%rbp)
	movq	16(%rbp), %rax
	movq	(%rax), %rax
	popq	%rbp
	ret
	.seh_endproc
	.section	.text$_ZNSt14_Function_baseD2Ev,"x"
	.linkonce discard
	.align 2
	.globl	_ZNSt14_Function_baseD2Ev
	.def	_ZNSt14_Function_baseD2Ev;	.scl	2;	.type	32;	.endef
	.seh_proc	_ZNSt14_Function_baseD2Ev
_ZNSt14_Function_baseD2Ev:
.LFB3758:
	pushq	%rbp
	.seh_pushreg	%rbp
	movq	%rsp, %rbp
	.seh_setframe	%rbp, 0
	subq	$32, %rsp
	.seh_stackalloc	32
	.seh_endprologue
	movq	%rcx, 16(%rbp)
	movq	16(%rbp), %rax
	movq	16(%rax), %rax
	testq	%rax, %rax
	je	.L161
	movq	16(%rbp), %rax
	movq	16(%rax), %r9
	movq	16(%rbp), %rdx
	movq	16(%rbp), %rax
	movl	$3, %r8d
	movq	%rax, %rcx
	call	*%r9
.L161:
	nop
	addq	$32, %rsp
	popq	%rbp
	ret
	.seh_handler	__gxx_personality_seh0, @unwind, @except
	.seh_handlerdata
.LLSDA3758:
	.byte	0xff
	.byte	0xff
	.byte	0x1
	.uleb128 .LLSDACSE3758-.LLSDACSB3758
.LLSDACSB3758:
.LLSDACSE3758:
	.section	.text$_ZNSt14_Function_baseD2Ev,"x"
	.linkonce discard
	.seh_endproc
	.section	.text$_ZNKSt14_Function_base8_M_emptyEv,"x"
	.linkonce discard
	.align 2
	.globl	_ZNKSt14_Function_base8_M_emptyEv
	.def	_ZNKSt14_Function_base8_M_emptyEv;	.scl	2;	.type	32;	.endef
	.seh_proc	_ZNKSt14_Function_base8_M_emptyEv
_ZNKSt14_Function_base8_M_emptyEv:
.LFB3760:
	pushq	%rbp
	.seh_pushreg	%rbp
	movq	%rsp, %rbp
	.seh_setframe	%rbp, 0
	.seh_endprologue
	movq	%rcx, 16(%rbp)
	movq	16(%rbp), %rax
	movq	16(%rax), %rax
	testq	%rax, %rax
	sete	%al
	popq	%rbp
	ret
	.seh_endproc
	.section	.text$_ZNSt16_Sp_counted_baseILN9__gnu_cxx12_Lock_policyE2EE10_M_releaseEv,"x"
	.linkonce discard
	.align 2
	.globl	_ZNSt16_Sp_counted_baseILN9__gnu_cxx12_Lock_policyE2EE10_M_releaseEv
	.def	_ZNSt16_Sp_counted_baseILN9__gnu_cxx12_Lock_policyE2EE10_M_releaseEv;	.scl	2;	.type	32;	.endef
	.seh_proc	_ZNSt16_Sp_counted_baseILN9__gnu_cxx12_Lock_policyE2EE10_M_releaseEv
_ZNSt16_Sp_counted_baseILN9__gnu_cxx12_Lock_policyE2EE10_M_releaseEv:
.LFB4081:
	pushq	%rbp
	.seh_pushreg	%rbp
	movq	%rsp, %rbp
	.seh_setframe	%rbp, 0
	subq	$112, %rsp
	.seh_stackalloc	112
	.seh_endprologue
	movq	%rcx, 16(%rbp)
	movb	$1, -1(%rbp)
	movb	$1, -2(%rbp)
	movb	$1, -3(%rbp)
	movl	$32, -8(%rbp)
	movl	$32, -12(%rbp)
	movabsq	$4294967297, %rax
	movq	%rax, -24(%rbp)
	movq	16(%rbp), %rax
	addq	$8, %rax
	movq	%rax, -32(%rbp)
	movq	-32(%rbp), %rax
	movq	(%rax), %rdx
	movabsq	$4294967297, %rax
	cmpq	%rax, %rdx
	sete	%al
	testb	%al, %al
	je	.L165
	movq	16(%rbp), %rax
	movl	$0, 8(%rax)
	movq	16(%rbp), %rax
	movl	8(%rax), %edx
	movq	16(%rbp), %rax
	movl	%edx, 12(%rax)
	movq	16(%rbp), %rax
	movq	(%rax), %rax
	addq	$16, %rax
	movq	(%rax), %rdx
	movq	16(%rbp), %rax
	movq	%rax, %rcx
	call	*%rdx
	movq	16(%rbp), %rax
	movq	(%rax), %rax
	addq	$24, %rax
	movq	(%rax), %rdx
	movq	16(%rbp), %rax
	movq	%rax, %rcx
	call	*%rdx
	jmp	.L164
.L165:
	movq	16(%rbp), %rax
	addq	$8, %rax
	movq	%rax, -40(%rbp)
	movl	$-1, -44(%rbp)
	movl	$1, %eax
	testl	%eax, %eax
	sete	%al
	testb	%al, %al
	je	.L169
	movq	-40(%rbp), %rax
	movq	%rax, -56(%rbp)
	movl	-44(%rbp), %eax
	movl	%eax, -60(%rbp)
	movq	-56(%rbp), %rax
	movl	(%rax), %eax
	movl	%eax, -64(%rbp)
	movq	-56(%rbp), %rax
	movl	(%rax), %edx
	movl	-60(%rbp), %eax
	addl	%eax, %edx
	movq	-56(%rbp), %rax
	movl	%edx, (%rax)
	movl	-64(%rbp), %eax
	jmp	.L171
.L169:
	movq	-40(%rbp), %rax
	movq	%rax, -72(%rbp)
	movl	-44(%rbp), %eax
	movl	%eax, -76(%rbp)
	movl	-76(%rbp), %edx
	movq	-72(%rbp), %rax
	lock xaddl	%edx, (%rax)
	movl	%edx, %eax
	nop
.L171:
	cmpl	$1, %eax
	sete	%al
	testb	%al, %al
	je	.L164
	movq	16(%rbp), %rax
	movq	%rax, %rcx
	call	_ZNSt16_Sp_counted_baseILN9__gnu_cxx12_Lock_policyE2EE24_M_release_last_use_coldEv
	nop
.L164:
	addq	$112, %rsp
	popq	%rbp
	ret
	.seh_endproc
	.globl	_ZZNSt19_Sp_make_shared_tag5_S_tiEvE5__tag
	.section	.rdata$_ZZNSt19_Sp_make_shared_tag5_S_tiEvE5__tag,"dr"
	.linkonce same_size
	.align 8
_ZZNSt19_Sp_make_shared_tag5_S_tiEvE5__tag:
	.space 16
	.section	.text$_ZNSt19_Sp_make_shared_tag5_S_tiEv,"x"
	.linkonce discard
	.globl	_ZNSt19_Sp_make_shared_tag5_S_tiEv
	.def	_ZNSt19_Sp_make_shared_tag5_S_tiEv;	.scl	2;	.type	32;	.endef
	.seh_proc	_ZNSt19_Sp_make_shared_tag5_S_tiEv
_ZNSt19_Sp_make_shared_tag5_S_tiEv:
.LFB4107:
	pushq	%rbp
	.seh_pushreg	%rbp
	movq	%rsp, %rbp
	.seh_setframe	%rbp, 0
	.seh_endprologue
	leaq	_ZZNSt19_Sp_make_shared_tag5_S_tiEvE5__tag(%rip), %rax
	popq	%rbp
	ret
	.seh_endproc
	.section	.text$_ZNSt18_Rb_tree_node_base10_S_minimumEPS_,"x"
	.linkonce discard
	.globl	_ZNSt18_Rb_tree_node_base10_S_minimumEPS_
	.def	_ZNSt18_Rb_tree_node_base10_S_minimumEPS_;	.scl	2;	.type	32;	.endef
	.seh_proc	_ZNSt18_Rb_tree_node_base10_S_minimumEPS_
_ZNSt18_Rb_tree_node_base10_S_minimumEPS_:
.LFB4622:
	pushq	%rbp
	.seh_pushreg	%rbp
	movq	%rsp, %rbp
	.seh_setframe	%rbp, 0
	.seh_endprologue
	movq	%rcx, 16(%rbp)
	jmp	.L176
.L177:
	movq	16(%rbp), %rax
	movq	16(%rax), %rax
	movq	%rax, 16(%rbp)
.L176:
	movq	16(%rbp), %rax
	movq	16(%rax), %rax
	testq	%rax, %rax
	jne	.L177
	movq	16(%rbp), %rax
	popq	%rbp
	ret
	.seh_endproc
	.section	.text$_ZNSt18_Rb_tree_node_base10_S_maximumEPS_,"x"
	.linkonce discard
	.globl	_ZNSt18_Rb_tree_node_base10_S_maximumEPS_
	.def	_ZNSt18_Rb_tree_node_base10_S_maximumEPS_;	.scl	2;	.type	32;	.endef
	.seh_proc	_ZNSt18_Rb_tree_node_base10_S_maximumEPS_
_ZNSt18_Rb_tree_node_base10_S_maximumEPS_:
.LFB4623:
	pushq	%rbp
	.seh_pushreg	%rbp
	movq	%rsp, %rbp
	.seh_setframe	%rbp, 0
	.seh_endprologue
	movq	%rcx, 16(%rbp)
	jmp	.L180
.L181:
	movq	16(%rbp), %rax
	movq	24(%rax), %rax
	movq	%rax, 16(%rbp)
.L180:
	movq	16(%rbp), %rax
	movq	24(%rax), %rax
	testq	%rax, %rax
	jne	.L181
	movq	16(%rbp), %rax
	popq	%rbp
	ret
	.seh_endproc
	.section	.text$_ZNKSt18_Rb_tree_node_base11_M_base_ptrEv,"x"
	.linkonce discard
	.align 2
	.globl	_ZNKSt18_Rb_tree_node_base11_M_base_ptrEv
	.def	_ZNKSt18_Rb_tree_node_base11_M_base_ptrEv;	.scl	2;	.type	32;	.endef
	.seh_proc	_ZNKSt18_Rb_tree_node_base11_M_base_ptrEv
_ZNKSt18_Rb_tree_node_base11_M_base_ptrEv:
.LFB4624:
	pushq	%rbp
	.seh_pushreg	%rbp
	movq	%rsp, %rbp
	.seh_setframe	%rbp, 0
	.seh_endprologue
	movq	%rcx, 16(%rbp)
	movq	16(%rbp), %rax
	popq	%rbp
	ret
	.seh_endproc
	.section	.text$_ZNSt15_Rb_tree_headerC2Ev,"x"
	.linkonce discard
	.align 2
	.globl	_ZNSt15_Rb_tree_headerC2Ev
	.def	_ZNSt15_Rb_tree_headerC2Ev;	.scl	2;	.type	32;	.endef
	.seh_proc	_ZNSt15_Rb_tree_headerC2Ev
_ZNSt15_Rb_tree_headerC2Ev:
.LFB4629:
	pushq	%rbp
	.seh_pushreg	%rbp
	movq	%rsp, %rbp
	.seh_setframe	%rbp, 0
	subq	$32, %rsp
	.seh_stackalloc	32
	.seh_endprologue
	movq	%rcx, 16(%rbp)
	movq	16(%rbp), %rax
	movl	$0, (%rax)
	movq	16(%rbp), %rax
	movq	%rax, %rcx
	call	_ZNSt15_Rb_tree_header8_M_resetEv
	nop
	addq	$32, %rsp
	popq	%rbp
	ret
	.seh_endproc
	.section	.text$_ZNSt15_Rb_tree_header8_M_resetEv,"x"
	.linkonce discard
	.align 2
	.globl	_ZNSt15_Rb_tree_header8_M_resetEv
	.def	_ZNSt15_Rb_tree_header8_M_resetEv;	.scl	2;	.type	32;	.endef
	.seh_proc	_ZNSt15_Rb_tree_header8_M_resetEv
_ZNSt15_Rb_tree_header8_M_resetEv:
.LFB4635:
	pushq	%rbp
	.seh_pushreg	%rbp
	movq	%rsp, %rbp
	.seh_setframe	%rbp, 0
	.seh_endprologue
	movq	%rcx, 16(%rbp)
	movq	16(%rbp), %rax
	movq	$0, 8(%rax)
	movq	16(%rbp), %rdx
	movq	16(%rbp), %rax
	movq	%rdx, 16(%rax)
	movq	16(%rbp), %rdx
	movq	16(%rbp), %rax
	movq	%rdx, 24(%rax)
	movq	16(%rbp), %rax
	movq	$0, 32(%rax)
	nop
	popq	%rbp
	ret
	.seh_endproc
	.section	.text$_ZSt3loge,"x"
	.linkonce discard
	.globl	_ZSt3loge
	.def	_ZSt3loge;	.scl	2;	.type	32;	.endef
	.seh_proc	_ZSt3loge
_ZSt3loge:
.LFB5043:
	pushq	%rbp
	.seh_pushreg	%rbp
	pushq	%rbx
	.seh_pushreg	%rbx
	subq	$88, %rsp
	.seh_stackalloc	88
	leaq	80(%rsp), %rbp
	.seh_setframe	%rbp, 80
	.seh_endprologue
	movq	%rcx, 32(%rbp)
	movq	%rdx, %rbx
	fldt	(%rbx)
	fstpt	-16(%rbp)
	leaq	-32(%rbp), %rax
	fldt	-16(%rbp)
	fstpt	-48(%rbp)
	leaq	-48(%rbp), %rdx
	movq	%rax, %rcx
	call	logl
	fldt	-32(%rbp)
	movq	32(%rbp), %rax
	fstpt	(%rax)
	movq	32(%rbp), %rax
	addq	$88, %rsp
	popq	%rbx
	popq	%rbp
	ret
	.seh_endproc
	.section	.text$_ZSt8isfinited,"x"
	.linkonce discard
	.globl	_ZSt8isfinited
	.def	_ZSt8isfinited;	.scl	2;	.type	32;	.endef
	.seh_proc	_ZSt8isfinited
_ZSt8isfinited:
.LFB5075:
	pushq	%rbp
	.seh_pushreg	%rbp
	movq	%rsp, %rbp
	.seh_setframe	%rbp, 0
	.seh_endprologue
	movsd	%xmm0, 16(%rbp)
	movsd	16(%rbp), %xmm0
	movq	.LC1(%rip), %xmm1
	andpd	%xmm0, %xmm1
	movsd	.LC2(%rip), %xmm0
	ucomisd	%xmm1, %xmm0
	setb	%al
	xorl	$1, %eax
	movzbl	%al, %eax
	testl	%eax, %eax
	setne	%al
	popq	%rbp
	ret
	.seh_endproc
	.section	.text$_ZSt7signbitd,"x"
	.linkonce discard
	.globl	_ZSt7signbitd
	.def	_ZSt7signbitd;	.scl	2;	.type	32;	.endef
	.seh_proc	_ZSt7signbitd
_ZSt7signbitd:
.LFB5091:
	pushq	%rbp
	.seh_pushreg	%rbp
	movq	%rsp, %rbp
	.seh_setframe	%rbp, 0
	.seh_endprologue
	movsd	%xmm0, 16(%rbp)
	movsd	16(%rbp), %xmm0
	movmskpd	%xmm0, %eax
	andl	$1, %eax
	testl	%eax, %eax
	setne	%al
	popq	%rbp
	ret
	.seh_endproc
	.section	.text$_ZSt9nextafterff,"x"
	.linkonce discard
	.globl	_ZSt9nextafterff
	.def	_ZSt9nextafterff;	.scl	2;	.type	32;	.endef
	.seh_proc	_ZSt9nextafterff
_ZSt9nextafterff:
.LFB5184:
	pushq	%rbp
	.seh_pushreg	%rbp
	movq	%rsp, %rbp
	.seh_setframe	%rbp, 0
	subq	$32, %rsp
	.seh_stackalloc	32
	.seh_endprologue
	movss	%xmm0, 16(%rbp)
	movss	%xmm1, 24(%rbp)
	movss	24(%rbp), %xmm0
	movl	16(%rbp), %eax
	movaps	%xmm0, %xmm1
	movd	%eax, %xmm0
	call	nextafterf
	addq	$32, %rsp
	popq	%rbp
	ret
	.seh_endproc
	.section	.text$_ZNK8nlohmann16json_abi_v3_12_06detail10position_tcvyEv,"x"
	.linkonce discard
	.align 2
	.globl	_ZNK8nlohmann16json_abi_v3_12_06detail10position_tcvyEv
	.def	_ZNK8nlohmann16json_abi_v3_12_06detail10position_tcvyEv;	.scl	2;	.type	32;	.endef
	.seh_proc	_ZNK8nlohmann16json_abi_v3_12_06detail10position_tcvyEv
_ZNK8nlohmann16json_abi_v3_12_06detail10position_tcvyEv:
.LFB6082:
	pushq	%rbp
	.seh_pushreg	%rbp
	movq	%rsp, %rbp
	.seh_setframe	%rbp, 0
	.seh_endprologue
	movq	%rcx, 16(%rbp)
	movq	16(%rbp), %rax
	movq	(%rax), %rax
	popq	%rbp
	ret
	.seh_endproc
	.section	.text$_ZN8nlohmann16json_abi_v3_12_06detail13concat_lengthEv,"x"
	.linkonce discard
	.globl	_ZN8nlohmann16json_abi_v3_12_06detail13concat_lengthEv
	.def	_ZN8nlohmann16json_abi_v3_12_06detail13concat_lengthEv;	.scl	2;	.type	32;	.endef
	.seh_proc	_ZN8nlohmann16json_abi_v3_12_06detail13concat_lengthEv
_ZN8nlohmann16json_abi_v3_12_06detail13concat_lengthEv:
.LFB6124:
	pushq	%rbp
	.seh_pushreg	%rbp
	movq	%rsp, %rbp
	.seh_setframe	%rbp, 0
	.seh_endprologue
	movl	$0, %eax
	popq	%rbp
	ret
	.seh_endproc
	.section	.text$_ZNK8nlohmann16json_abi_v3_12_06detail9exception4whatEv,"x"
	.linkonce discard
	.align 2
	.globl	_ZNK8nlohmann16json_abi_v3_12_06detail9exception4whatEv
	.def	_ZNK8nlohmann16json_abi_v3_12_06detail9exception4whatEv;	.scl	2;	.type	32;	.endef
	.seh_proc	_ZNK8nlohmann16json_abi_v3_12_06detail9exception4whatEv
_ZNK8nlohmann16json_abi_v3_12_06detail9exception4whatEv:
.LFB6134:
	pushq	%rbp
	.seh_pushreg	%rbp
	movq	%rsp, %rbp
	.seh_setframe	%rbp, 0
	subq	$32, %rsp
	.seh_stackalloc	32
	.seh_endprologue
	movq	%rcx, 16(%rbp)
	movq	16(%rbp), %rax
	addq	$16, %rax
	movq	%rax, %rcx
	call	_ZNKSt13runtime_error4whatEv
	addq	$32, %rsp
	popq	%rbp
	ret
	.seh_endproc
	.section	.text$_ZN8nlohmann16json_abi_v3_12_06detail9exceptionC2EiPKc,"x"
	.linkonce discard
	.align 2
	.globl	_ZN8nlohmann16json_abi_v3_12_06detail9exceptionC2EiPKc
	.def	_ZN8nlohmann16json_abi_v3_12_06detail9exceptionC2EiPKc;	.scl	2;	.type	32;	.endef
	.seh_proc	_ZN8nlohmann16json_abi_v3_12_06detail9exceptionC2EiPKc
_ZN8nlohmann16json_abi_v3_12_06detail9exceptionC2EiPKc:
.LFB6136:
	pushq	%rbp
	.seh_pushreg	%rbp
	pushq	%rbx
	.seh_pushreg	%rbx
	subq	$40, %rsp
	.seh_stackalloc	40
	leaq	32(%rsp), %rbp
	.seh_setframe	%rbp, 32
	.seh_endprologue
	movq	%rcx, 32(%rbp)
	movl	%edx, 40(%rbp)
	movq	%r8, 48(%rbp)
	movq	32(%rbp), %rax
	movq	%rax, %rcx
	call	_ZNSt9exceptionC2Ev
	leaq	16+_ZTVN8nlohmann16json_abi_v3_12_06detail9exceptionE(%rip), %rdx
	movq	32(%rbp), %rax
	movq	%rdx, (%rax)
	movq	32(%rbp), %rax
	movl	40(%rbp), %edx
	movl	%edx, 8(%rax)
	movq	32(%rbp), %rax
	leaq	16(%rax), %rcx
	movq	48(%rbp), %rax
	movq	%rax, %rdx
.LEHB2:
	call	_ZNSt13runtime_errorC1EPKc
.LEHE2:
	jmp	.L204
.L203:
	movq	%rax, %rbx
	movq	32(%rbp), %rax
	movq	%rax, %rcx
	call	_ZNSt9exceptionD2Ev
	movq	%rbx, %rax
	movq	%rax, %rcx
.LEHB3:
	call	_Unwind_Resume
	nop
.LEHE3:
.L204:
	addq	$40, %rsp
	popq	%rbx
	popq	%rbp
	ret
	.seh_handler	__gxx_personality_seh0, @unwind, @except
	.seh_handlerdata
.LLSDA6136:
	.byte	0xff
	.byte	0xff
	.byte	0x1
	.uleb128 .LLSDACSE6136-.LLSDACSB6136
.LLSDACSB6136:
	.uleb128 .LEHB2-.LFB6136
	.uleb128 .LEHE2-.LEHB2
	.uleb128 .L203-.LFB6136
	.uleb128 0
	.uleb128 .LEHB3-.LFB6136
	.uleb128 .LEHE3-.LEHB3
	.uleb128 0
	.uleb128 0
.LLSDACSE6136:
	.section	.text$_ZN8nlohmann16json_abi_v3_12_06detail9exceptionC2EiPKc,"x"
	.linkonce discard
	.seh_endproc
	.section .rdata,"dr"
.LC3:
	.ascii "[json.exception.\0"
.LC4:
	.ascii "] \0"
	.section	.text$_ZN8nlohmann16json_abi_v3_12_06detail9exception4nameERKNSt7__cxx1112basic_stringIcSt11char_traitsIcESaIcEEEi,"x"
	.linkonce discard
	.globl	_ZN8nlohmann16json_abi_v3_12_06detail9exception4nameERKNSt7__cxx1112basic_stringIcSt11char_traitsIcESaIcEEEi
	.def	_ZN8nlohmann16json_abi_v3_12_06detail9exception4nameERKNSt7__cxx1112basic_stringIcSt11char_traitsIcESaIcEEEi;	.scl	2;	.type	32;	.endef
	.seh_proc	_ZN8nlohmann16json_abi_v3_12_06detail9exception4nameERKNSt7__cxx1112basic_stringIcSt11char_traitsIcESaIcEEEi
_ZN8nlohmann16json_abi_v3_12_06detail9exception4nameERKNSt7__cxx1112basic_stringIcSt11char_traitsIcESaIcEEEi:
.LFB6138:
	pushq	%rbp
	.seh_pushreg	%rbp
	pushq	%rbx
	.seh_pushreg	%rbx
	subq	$104, %rsp
	.seh_stackalloc	104
	leaq	96(%rsp), %rbp
	.seh_setframe	%rbp, 96
	.seh_endprologue
	movq	%rcx, 32(%rbp)
	movq	%rdx, 40(%rbp)
	movl	%r8d, 48(%rbp)
	leaq	-48(%rbp), %rax
	movl	48(%rbp), %edx
	movq	%rax, %rcx
	call	_ZNSt7__cxx119to_stringEi
	movb	$46, -1(%rbp)
	movq	32(%rbp), %rax
	leaq	-1(%rbp), %r9
	movq	40(%rbp), %r8
	leaq	.LC3(%rip), %rdx
	leaq	.LC4(%rip), %rcx
	movq	%rcx, 40(%rsp)
	leaq	-48(%rbp), %rcx
	movq	%rcx, 32(%rsp)
	movq	%rax, %rcx
.LEHB4:
	call	_ZN8nlohmann16json_abi_v3_12_06detail6concatINSt7__cxx1112basic_stringIcSt11char_traitsIcESaIcEEEJRA17_KcRKS8_cS8_RA3_S9_EEET_DpOT0_
.LEHE4:
	nop
	leaq	-48(%rbp), %rax
	movq	%rax, %rcx
	call	_ZNSt7__cxx1112basic_stringIcSt11char_traitsIcESaIcEED1Ev
	jmp	.L209
.L208:
	movq	%rax, %rbx
	leaq	-48(%rbp), %rax
	movq	%rax, %rcx
	call	_ZNSt7__cxx1112basic_stringIcSt11char_traitsIcESaIcEED1Ev
	movq	%rbx, %rax
	movq	%rax, %rcx
.LEHB5:
	call	_Unwind_Resume
.LEHE5:
.L209:
	movq	32(%rbp), %rax
	addq	$104, %rsp
	popq	%rbx
	popq	%rbp
	ret
	.seh_handler	__gxx_personality_seh0, @unwind, @except
	.seh_handlerdata
.LLSDA6138:
	.byte	0xff
	.byte	0xff
	.byte	0x1
	.uleb128 .LLSDACSE6138-.LLSDACSB6138
.LLSDACSB6138:
	.uleb128 .LEHB4-.LFB6138
	.uleb128 .LEHE4-.LEHB4
	.uleb128 .L208-.LFB6138
	.uleb128 0
	.uleb128 .LEHB5-.LFB6138
	.uleb128 .LEHE5-.LEHB5
	.uleb128 0
	.uleb128 0
.LLSDACSE6138:
	.section	.text$_ZN8nlohmann16json_abi_v3_12_06detail9exception4nameERKNSt7__cxx1112basic_stringIcSt11char_traitsIcESaIcEEEi,"x"
	.linkonce discard
	.seh_endproc
	.section .rdata,"dr"
.LC5:
	.ascii "\0"
	.section	.text$_ZN8nlohmann16json_abi_v3_12_06detail9exception11diagnosticsB5cxx11EDn,"x"
	.linkonce discard
	.globl	_ZN8nlohmann16json_abi_v3_12_06detail9exception11diagnosticsB5cxx11EDn
	.def	_ZN8nlohmann16json_abi_v3_12_06detail9exception11diagnosticsB5cxx11EDn;	.scl	2;	.type	32;	.endef
	.seh_proc	_ZN8nlohmann16json_abi_v3_12_06detail9exception11diagnosticsB5cxx11EDn
_ZN8nlohmann16json_abi_v3_12_06detail9exception11diagnosticsB5cxx11EDn:
.LFB6139:
	pushq	%rbp
	.seh_pushreg	%rbp
	pushq	%rbx
	.seh_pushreg	%rbx
	subq	$56, %rsp
	.seh_stackalloc	56
	leaq	48(%rsp), %rbp
	.seh_setframe	%rbp, 48
	.seh_endprologue
	movq	%rcx, 32(%rbp)
	movq	%rdx, 40(%rbp)
	leaq	-9(%rbp), %rax
	movq	%rax, -8(%rbp)
	nop
	nop
	leaq	-9(%rbp), %rcx
	leaq	.LC5(%rip), %rdx
	movq	32(%rbp), %rax
	movq	%rcx, %r8
	movq	%rax, %rcx
.LEHB6:
	call	_ZNSt7__cxx1112basic_stringIcSt11char_traitsIcESaIcEEC1IS3_EEPKcRKS3_
.LEHE6:
	leaq	-9(%rbp), %rax
	movq	%rax, %rcx
	call	_ZNSt15__new_allocatorIcED2Ev
	nop
	jmp	.L214
.L213:
	movq	%rax, %rbx
	leaq	-9(%rbp), %rax
	movq	%rax, %rcx
	call	_ZNSt15__new_allocatorIcED2Ev
	nop
	movq	%rbx, %rax
	movq	%rax, %rcx
.LEHB7:
	call	_Unwind_Resume
.LEHE7:
.L214:
	movq	32(%rbp), %rax
	addq	$56, %rsp
	popq	%rbx
	popq	%rbp
	ret
	.seh_handler	__gxx_personality_seh0, @unwind, @except
	.seh_handlerdata
.LLSDA6139:
	.byte	0xff
	.byte	0xff
	.byte	0x1
	.uleb128 .LLSDACSE6139-.LLSDACSB6139
.LLSDACSB6139:
	.uleb128 .LEHB6-.LFB6139
	.uleb128 .LEHE6-.LEHB6
	.uleb128 .L213-.LFB6139
	.uleb128 0
	.uleb128 .LEHB7-.LFB6139
	.uleb128 .LEHE7-.LEHB7
	.uleb128 0
	.uleb128 0
.LLSDACSE6139:
	.section	.text$_ZN8nlohmann16json_abi_v3_12_06detail9exception11diagnosticsB5cxx11EDn,"x"
	.linkonce discard
	.seh_endproc
	.section	.text$_ZN8nlohmann16json_abi_v3_12_06detail9exceptionD2Ev,"x"
	.linkonce discard
	.align 2
	.globl	_ZN8nlohmann16json_abi_v3_12_06detail9exceptionD2Ev
	.def	_ZN8nlohmann16json_abi_v3_12_06detail9exceptionD2Ev;	.scl	2;	.type	32;	.endef
	.seh_proc	_ZN8nlohmann16json_abi_v3_12_06detail9exceptionD2Ev
_ZN8nlohmann16json_abi_v3_12_06detail9exceptionD2Ev:
.LFB6146:
	pushq	%rbp
	.seh_pushreg	%rbp
	movq	%rsp, %rbp
	.seh_setframe	%rbp, 0
	subq	$32, %rsp
	.seh_stackalloc	32
	.seh_endprologue
	movq	%rcx, 16(%rbp)
	leaq	16+_ZTVN8nlohmann16json_abi_v3_12_06detail9exceptionE(%rip), %rdx
	movq	16(%rbp), %rax
	movq	%rdx, (%rax)
	movq	16(%rbp), %rax
	addq	$16, %rax
	movq	%rax, %rcx
	call	_ZNSt13runtime_errorD1Ev
	movq	16(%rbp), %rax
	movq	%rax, %rcx
	call	_ZNSt9exceptionD2Ev
	nop
	addq	$32, %rsp
	popq	%rbp
	ret
	.seh_endproc
	.section	.text$_ZN8nlohmann16json_abi_v3_12_06detail9exceptionD1Ev,"x"
	.linkonce discard
	.align 2
	.globl	_ZN8nlohmann16json_abi_v3_12_06detail9exceptionD1Ev
	.def	_ZN8nlohmann16json_abi_v3_12_06detail9exceptionD1Ev;	.scl	2;	.type	32;	.endef
	.seh_proc	_ZN8nlohmann16json_abi_v3_12_06detail9exceptionD1Ev
_ZN8nlohmann16json_abi_v3_12_06detail9exceptionD1Ev:
.LFB6147:
	pushq	%rbp
	.seh_pushreg	%rbp
	movq	%rsp, %rbp
	.seh_setframe	%rbp, 0
	subq	$32, %rsp
	.seh_stackalloc	32
	.seh_endprologue
	movq	%rcx, 16(%rbp)
	leaq	16+_ZTVN8nlohmann16json_abi_v3_12_06detail9exceptionE(%rip), %rdx
	movq	16(%rbp), %rax
	movq	%rdx, (%rax)
	movq	16(%rbp), %rax
	addq	$16, %rax
	movq	%rax, %rcx
	call	_ZNSt13runtime_errorD1Ev
	movq	16(%rbp), %rax
	movq	%rax, %rcx
	call	_ZNSt9exceptionD2Ev
	nop
	addq	$32, %rsp
	popq	%rbp
	ret
	.seh_endproc
	.section	.text$_ZN8nlohmann16json_abi_v3_12_06detail9exceptionD0Ev,"x"
	.linkonce discard
	.align 2
	.globl	_ZN8nlohmann16json_abi_v3_12_06detail9exceptionD0Ev
	.def	_ZN8nlohmann16json_abi_v3_12_06detail9exceptionD0Ev;	.scl	2;	.type	32;	.endef
	.seh_proc	_ZN8nlohmann16json_abi_v3_12_06detail9exceptionD0Ev
_ZN8nlohmann16json_abi_v3_12_06detail9exceptionD0Ev:
.LFB6148:
	pushq	%rbp
	.seh_pushreg	%rbp
	movq	%rsp, %rbp
	.seh_setframe	%rbp, 0
	subq	$32, %rsp
	.seh_stackalloc	32
	.seh_endprologue
	movq	%rcx, 16(%rbp)
	movq	16(%rbp), %rax
	movq	%rax, %rcx
	call	_ZN8nlohmann16json_abi_v3_12_06detail9exceptionD1Ev
	movq	16(%rbp), %rax
	movl	$32, %edx
	movq	%rax, %rcx
	call	_ZdlPvy
	nop
	addq	$32, %rsp
	popq	%rbp
	ret
	.seh_endproc
	.section	.text$_ZN8nlohmann16json_abi_v3_12_06detail11parse_errorC1EiyPKc,"x"
	.linkonce discard
	.align 2
	.globl	_ZN8nlohmann16json_abi_v3_12_06detail11parse_errorC1EiyPKc
	.def	_ZN8nlohmann16json_abi_v3_12_06detail11parse_errorC1EiyPKc;	.scl	2;	.type	32;	.endef
	.seh_proc	_ZN8nlohmann16json_abi_v3_12_06detail11parse_errorC1EiyPKc
_ZN8nlohmann16json_abi_v3_12_06detail11parse_errorC1EiyPKc:
.LFB6150:
	pushq	%rbp
	.seh_pushreg	%rbp
	movq	%rsp, %rbp
	.seh_setframe	%rbp, 0
	subq	$32, %rsp
	.seh_stackalloc	32
	.seh_endprologue
	movq	%rcx, 16(%rbp)
	movl	%edx, 24(%rbp)
	movq	%r8, 32(%rbp)
	movq	%r9, 40(%rbp)
	movq	16(%rbp), %rax
	movq	40(%rbp), %rcx
	movl	24(%rbp), %edx
	movq	%rcx, %r8
	movq	%rax, %rcx
	call	_ZN8nlohmann16json_abi_v3_12_06detail9exceptionC2EiPKc
	leaq	16+_ZTVN8nlohmann16json_abi_v3_12_06detail11parse_errorE(%rip), %rdx
	movq	16(%rbp), %rax
	movq	%rdx, (%rax)
	movq	16(%rbp), %rax
	movq	32(%rbp), %rdx
	movq	%rdx, 32(%rax)
	nop
	addq	$32, %rsp
	popq	%rbp
	ret
	.seh_endproc
	.section .rdata,"dr"
.LC6:
	.ascii ", column \0"
.LC7:
	.ascii " at line \0"
	.section	.text$_ZN8nlohmann16json_abi_v3_12_06detail11parse_error15position_stringB5cxx11ERKNS1_10position_tE,"x"
	.linkonce discard
	.globl	_ZN8nlohmann16json_abi_v3_12_06detail11parse_error15position_stringB5cxx11ERKNS1_10position_tE
	.def	_ZN8nlohmann16json_abi_v3_12_06detail11parse_error15position_stringB5cxx11ERKNS1_10position_tE;	.scl	2;	.type	32;	.endef
	.seh_proc	_ZN8nlohmann16json_abi_v3_12_06detail11parse_error15position_stringB5cxx11ERKNS1_10position_tE
_ZN8nlohmann16json_abi_v3_12_06detail11parse_error15position_stringB5cxx11ERKNS1_10position_tE:
.LFB6151:
	pushq	%rbp
	.seh_pushreg	%rbp
	pushq	%rbx
	.seh_pushreg	%rbx
	subq	$120, %rsp
	.seh_stackalloc	120
	leaq	112(%rsp), %rbp
	.seh_setframe	%rbp, 112
	.seh_endprologue
	movq	%rcx, 32(%rbp)
	movq	%rdx, 40(%rbp)
	movq	40(%rbp), %rax
	movq	8(%rax), %rdx
	leaq	-64(%rbp), %rax
	movq	%rax, %rcx
.LEHB8:
	call	_ZNSt7__cxx119to_stringEy
.LEHE8:
	movq	40(%rbp), %rax
	movq	16(%rax), %rax
	leaq	1(%rax), %rdx
	leaq	-32(%rbp), %rax
	movq	%rax, %rcx
.LEHB9:
	call	_ZNSt7__cxx119to_stringEy
.LEHE9:
	movq	32(%rbp), %rax
	leaq	.LC6(%rip), %r9
	leaq	-32(%rbp), %r8
	leaq	.LC7(%rip), %rdx
	leaq	-64(%rbp), %rcx
	movq	%rcx, 32(%rsp)
	movq	%rax, %rcx
.LEHB10:
	call	_ZN8nlohmann16json_abi_v3_12_06detail6concatINSt7__cxx1112basic_stringIcSt11char_traitsIcESaIcEEEJRA10_KcS8_SB_S8_EEET_DpOT0_
.LEHE10:
	nop
	leaq	-32(%rbp), %rax
	movq	%rax, %rcx
	call	_ZNSt7__cxx1112basic_stringIcSt11char_traitsIcESaIcEED1Ev
	leaq	-64(%rbp), %rax
	movq	%rax, %rcx
	call	_ZNSt7__cxx1112basic_stringIcSt11char_traitsIcESaIcEED1Ev
	jmp	.L225
.L224:
	movq	%rax, %rbx
	leaq	-32(%rbp), %rax
	movq	%rax, %rcx
	call	_ZNSt7__cxx1112basic_stringIcSt11char_traitsIcESaIcEED1Ev
	jmp	.L222
.L223:
	movq	%rax, %rbx
.L222:
	leaq	-64(%rbp), %rax
	movq	%rax, %rcx
	call	_ZNSt7__cxx1112basic_stringIcSt11char_traitsIcESaIcEED1Ev
	movq	%rbx, %rax
	movq	%rax, %rcx
.LEHB11:
	call	_Unwind_Resume
.LEHE11:
.L225:
	movq	32(%rbp), %rax
	addq	$120, %rsp
	popq	%rbx
	popq	%rbp
	ret
	.seh_handler	__gxx_personality_seh0, @unwind, @except
	.seh_handlerdata
.LLSDA6151:
	.byte	0xff
	.byte	0xff
	.byte	0x1
	.uleb128 .LLSDACSE6151-.LLSDACSB6151
.LLSDACSB6151:
	.uleb128 .LEHB8-.LFB6151
	.uleb128 .LEHE8-.LEHB8
	.uleb128 0
	.uleb128 0
	.uleb128 .LEHB9-.LFB6151
	.uleb128 .LEHE9-.LEHB9
	.uleb128 .L223-.LFB6151
	.uleb128 0
	.uleb128 .LEHB10-.LFB6151
	.uleb128 .LEHE10-.LEHB10
	.uleb128 .L224-.LFB6151
	.uleb128 0
	.uleb128 .LEHB11-.LFB6151
	.uleb128 .LEHE11-.LEHB11
	.uleb128 0
	.uleb128 0
.LLSDACSE6151:
	.section	.text$_ZN8nlohmann16json_abi_v3_12_06detail11parse_error15position_stringB5cxx11ERKNS1_10position_tE,"x"
	.linkonce discard
	.seh_endproc
	.section	.text$_ZN8nlohmann16json_abi_v3_12_06detail16invalid_iteratorC1EiPKc,"x"
	.linkonce discard
	.align 2
	.globl	_ZN8nlohmann16json_abi_v3_12_06detail16invalid_iteratorC1EiPKc
	.def	_ZN8nlohmann16json_abi_v3_12_06detail16invalid_iteratorC1EiPKc;	.scl	2;	.type	32;	.endef
	.seh_proc	_ZN8nlohmann16json_abi_v3_12_06detail16invalid_iteratorC1EiPKc
_ZN8nlohmann16json_abi_v3_12_06detail16invalid_iteratorC1EiPKc:
.LFB6155:
	pushq	%rbp
	.seh_pushreg	%rbp
	movq	%rsp, %rbp
	.seh_setframe	%rbp, 0
	subq	$32, %rsp
	.seh_stackalloc	32
	.seh_endprologue
	movq	%rcx, 16(%rbp)
	movl	%edx, 24(%rbp)
	movq	%r8, 32(%rbp)
	movq	16(%rbp), %rax
	movq	32(%rbp), %rcx
	movl	24(%rbp), %edx
	movq	%rcx, %r8
	movq	%rax, %rcx
	call	_ZN8nlohmann16json_abi_v3_12_06detail9exceptionC2EiPKc
	leaq	16+_ZTVN8nlohmann16json_abi_v3_12_06detail16invalid_iteratorE(%rip), %rdx
	movq	16(%rbp), %rax
	movq	%rdx, (%rax)
	nop
	addq	$32, %rsp
	popq	%rbp
	ret
	.seh_endproc
	.section	.text$_ZN8nlohmann16json_abi_v3_12_06detail10type_errorC1EiPKc,"x"
	.linkonce discard
	.align 2
	.globl	_ZN8nlohmann16json_abi_v3_12_06detail10type_errorC1EiPKc
	.def	_ZN8nlohmann16json_abi_v3_12_06detail10type_errorC1EiPKc;	.scl	2;	.type	32;	.endef
	.seh_proc	_ZN8nlohmann16json_abi_v3_12_06detail10type_errorC1EiPKc
_ZN8nlohmann16json_abi_v3_12_06detail10type_errorC1EiPKc:
.LFB6159:
	pushq	%rbp
	.seh_pushreg	%rbp
	movq	%rsp, %rbp
	.seh_setframe	%rbp, 0
	subq	$32, %rsp
	.seh_stackalloc	32
	.seh_endprologue
	movq	%rcx, 16(%rbp)
	movl	%edx, 24(%rbp)
	movq	%r8, 32(%rbp)
	movq	16(%rbp), %rax
	movq	32(%rbp), %rcx
	movl	24(%rbp), %edx
	movq	%rcx, %r8
	movq	%rax, %rcx
	call	_ZN8nlohmann16json_abi_v3_12_06detail9exceptionC2EiPKc
	leaq	16+_ZTVN8nlohmann16json_abi_v3_12_06detail10type_errorE(%rip), %rdx
	movq	16(%rbp), %rax
	movq	%rdx, (%rax)
	nop
	addq	$32, %rsp
	popq	%rbp
	ret
	.seh_endproc
	.section	.text$_ZN8nlohmann16json_abi_v3_12_06detail12out_of_rangeC1EiPKc,"x"
	.linkonce discard
	.align 2
	.globl	_ZN8nlohmann16json_abi_v3_12_06detail12out_of_rangeC1EiPKc
	.def	_ZN8nlohmann16json_abi_v3_12_06detail12out_of_rangeC1EiPKc;	.scl	2;	.type	32;	.endef
	.seh_proc	_ZN8nlohmann16json_abi_v3_12_06detail12out_of_rangeC1EiPKc
_ZN8nlohmann16json_abi_v3_12_06detail12out_of_rangeC1EiPKc:
.LFB6163:
	pushq	%rbp
	.seh_pushreg	%rbp
	movq	%rsp, %rbp
	.seh_setframe	%rbp, 0
	subq	$32, %rsp
	.seh_stackalloc	32
	.seh_endprologue
	movq	%rcx, 16(%rbp)
	movl	%edx, 24(%rbp)
	movq	%r8, 32(%rbp)
	movq	16(%rbp), %rax
	movq	32(%rbp), %rcx
	movl	24(%rbp), %edx
	movq	%rcx, %r8
	movq	%rax, %rcx
	call	_ZN8nlohmann16json_abi_v3_12_06detail9exceptionC2EiPKc
	leaq	16+_ZTVN8nlohmann16json_abi_v3_12_06detail12out_of_rangeE(%rip), %rdx
	movq	16(%rbp), %rax
	movq	%rdx, (%rax)
	nop
	addq	$32, %rsp
	popq	%rbp
	ret
	.seh_endproc
	.section	.text$_ZN8nlohmann16json_abi_v3_12_06detail11other_errorC1EiPKc,"x"
	.linkonce discard
	.align 2
	.globl	_ZN8nlohmann16json_abi_v3_12_06detail11other_errorC1EiPKc
	.def	_ZN8nlohmann16json_abi_v3_12_06detail11other_errorC1EiPKc;	.scl	2;	.type	32;	.endef
	.seh_proc	_ZN8nlohmann16json_abi_v3_12_06detail11other_errorC1EiPKc
_ZN8nlohmann16json_abi_v3_12_06detail11other_errorC1EiPKc:
.LFB6167:
	pushq	%rbp
	.seh_pushreg	%rbp
	movq	%rsp, %rbp
	.seh_setframe	%rbp, 0
	subq	$32, %rsp
	.seh_stackalloc	32
	.seh_endprologue
	movq	%rcx, 16(%rbp)
	movl	%edx, 24(%rbp)
	movq	%r8, 32(%rbp)
	movq	16(%rbp), %rax
	movq	32(%rbp), %rcx
	movl	24(%rbp), %edx
	movq	%rcx, %r8
	movq	%rax, %rcx
	call	_ZN8nlohmann16json_abi_v3_12_06detail9exceptionC2EiPKc
	leaq	16+_ZTVN8nlohmann16json_abi_v3_12_06detail11other_errorE(%rip), %rdx
	movq	16(%rbp), %rax
	movq	%rdx, (%rax)
	nop
	addq	$32, %rsp
	popq	%rbp
	ret
	.seh_endproc
	.globl	_ZN8nlohmann16json_abi_v3_12_06detail12static_constINS1_12from_json_fnEE5valueE
	.section	.rdata$_ZN8nlohmann16json_abi_v3_12_06detail12static_constINS1_12from_json_fnEE5valueE,"dr"
	.linkonce same_size
_ZN8nlohmann16json_abi_v3_12_06detail12static_constINS1_12from_json_fnEE5valueE:
	.space 1
	.globl	_ZN8nlohmann16json_abi_v3_12_06detail12static_constINS1_10to_json_fnEE5valueE
	.section	.rdata$_ZN8nlohmann16json_abi_v3_12_06detail12static_constINS1_10to_json_fnEE5valueE,"dr"
	.linkonce same_size
_ZN8nlohmann16json_abi_v3_12_06detail12static_constINS1_10to_json_fnEE5valueE:
	.space 1
	.section	.text$_ZN8nlohmann16json_abi_v3_12_06detail20input_stream_adapterD1Ev,"x"
	.linkonce discard
	.align 2
	.globl	_ZN8nlohmann16json_abi_v3_12_06detail20input_stream_adapterD1Ev
	.def	_ZN8nlohmann16json_abi_v3_12_06detail20input_stream_adapterD1Ev;	.scl	2;	.type	32;	.endef
	.seh_proc	_ZN8nlohmann16json_abi_v3_12_06detail20input_stream_adapterD1Ev
_ZN8nlohmann16json_abi_v3_12_06detail20input_stream_adapterD1Ev:
.LFB7075:
	pushq	%rbp
	.seh_pushreg	%rbp
	pushq	%rbx
	.seh_pushreg	%rbx
	subq	$40, %rsp
	.seh_stackalloc	40
	leaq	32(%rsp), %rbp
	.seh_setframe	%rbp, 32
	.seh_endprologue
	movq	%rcx, 32(%rbp)
	movq	32(%rbp), %rax
	movq	(%rax), %rax
	testq	%rax, %rax
	je	.L232
	movq	32(%rbp), %rax
	movq	(%rax), %rdx
	movq	32(%rbp), %rax
	movq	(%rax), %rax
	movq	(%rax), %rax
	subq	$24, %rax
	movq	(%rax), %rax
	leaq	(%rdx,%rax), %rbx
	movq	32(%rbp), %rax
	movq	(%rax), %rdx
	movq	32(%rbp), %rax
	movq	(%rax), %rax
	movq	(%rax), %rax
	subq	$24, %rax
	movq	(%rax), %rax
	addq	%rdx, %rax
	movq	%rax, %rcx
	call	_ZNKSt9basic_iosIcSt11char_traitsIcEE7rdstateEv
	movl	$2, %edx
	movl	%eax, %ecx
	call	_ZStanSt12_Ios_IostateS_
	movl	%eax, %edx
	movq	%rbx, %rcx
	call	_ZNSt9basic_iosIcSt11char_traitsIcEE5clearESt12_Ios_Iostate
.L232:
	nop
	addq	$40, %rsp
	popq	%rbx
	popq	%rbp
	ret
	.seh_handler	__gxx_personality_seh0, @unwind, @except
	.seh_handlerdata
.LLSDA7075:
	.byte	0xff
	.byte	0xff
	.byte	0x1
	.uleb128 .LLSDACSE7075-.LLSDACSB7075
.LLSDACSB7075:
.LLSDACSE7075:
	.section	.text$_ZN8nlohmann16json_abi_v3_12_06detail20input_stream_adapterD1Ev,"x"
	.linkonce discard
	.seh_endproc
	.section	.text$_ZN8nlohmann16json_abi_v3_12_06detail20input_stream_adapterC1ERSi,"x"
	.linkonce discard
	.align 2
	.globl	_ZN8nlohmann16json_abi_v3_12_06detail20input_stream_adapterC1ERSi
	.def	_ZN8nlohmann16json_abi_v3_12_06detail20input_stream_adapterC1ERSi;	.scl	2;	.type	32;	.endef
	.seh_proc	_ZN8nlohmann16json_abi_v3_12_06detail20input_stream_adapterC1ERSi
_ZN8nlohmann16json_abi_v3_12_06detail20input_stream_adapterC1ERSi:
.LFB7078:
	pushq	%rbp
	.seh_pushreg	%rbp
	movq	%rsp, %rbp
	.seh_setframe	%rbp, 0
	subq	$32, %rsp
	.seh_stackalloc	32
	.seh_endprologue
	movq	%rcx, 16(%rbp)
	movq	%rdx, 24(%rbp)
	movq	16(%rbp), %rax
	movq	24(%rbp), %rdx
	movq	%rdx, (%rax)
	movq	24(%rbp), %rax
	movq	(%rax), %rax
	subq	$24, %rax
	movq	(%rax), %rax
	movq	%rax, %rdx
	movq	24(%rbp), %rax
	addq	%rdx, %rax
	movq	%rax, %rcx
	call	_ZNKSt9basic_iosIcSt11char_traitsIcEE5rdbufEv
	movq	16(%rbp), %rdx
	movq	%rax, 8(%rdx)
	nop
	addq	$32, %rsp
	popq	%rbp
	ret
	.seh_endproc
	.section	.text$_ZN8nlohmann16json_abi_v3_12_06detail20input_stream_adapterC1EOS2_,"x"
	.linkonce discard
	.align 2
	.globl	_ZN8nlohmann16json_abi_v3_12_06detail20input_stream_adapterC1EOS2_
	.def	_ZN8nlohmann16json_abi_v3_12_06detail20input_stream_adapterC1EOS2_;	.scl	2;	.type	32;	.endef
	.seh_proc	_ZN8nlohmann16json_abi_v3_12_06detail20input_stream_adapterC1EOS2_
_ZN8nlohmann16json_abi_v3_12_06detail20input_stream_adapterC1EOS2_:
.LFB7081:
	pushq	%rbp
	.seh_pushreg	%rbp
	movq	%rsp, %rbp
	.seh_setframe	%rbp, 0
	.seh_endprologue
	movq	%rcx, 16(%rbp)
	movq	%rdx, 24(%rbp)
	movq	24(%rbp), %rax
	movq	(%rax), %rdx
	movq	16(%rbp), %rax
	movq	%rdx, (%rax)
	movq	24(%rbp), %rax
	movq	8(%rax), %rdx
	movq	16(%rbp), %rax
	movq	%rdx, 8(%rax)
	movq	24(%rbp), %rax
	movq	$0, (%rax)
	movq	24(%rbp), %rax
	movq	$0, 8(%rax)
	nop
	popq	%rbp
	ret
	.seh_endproc
	.section	.text$_ZN8nlohmann16json_abi_v3_12_06detail20input_stream_adapter13get_characterEv,"x"
	.linkonce discard
	.align 2
	.globl	_ZN8nlohmann16json_abi_v3_12_06detail20input_stream_adapter13get_characterEv
	.def	_ZN8nlohmann16json_abi_v3_12_06detail20input_stream_adapter13get_characterEv;	.scl	2;	.type	32;	.endef
	.seh_proc	_ZN8nlohmann16json_abi_v3_12_06detail20input_stream_adapter13get_characterEv
_ZN8nlohmann16json_abi_v3_12_06detail20input_stream_adapter13get_characterEv:
.LFB7082:
	pushq	%rbp
	.seh_pushreg	%rbp
	pushq	%rbx
	.seh_pushreg	%rbx
	subq	$56, %rsp
	.seh_stackalloc	56
	leaq	48(%rsp), %rbp
	.seh_setframe	%rbp, 48
	.seh_endprologue
	movq	%rcx, 32(%rbp)
	movq	32(%rbp), %rax
	movq	8(%rax), %rax
	movq	%rax, %rcx
	call	_ZNSt15basic_streambufIcSt11char_traitsIcEE6sbumpcEv
	movl	%eax, -4(%rbp)
	call	_ZNSt11char_traitsIcE3eofEv
	cmpl	%eax, -4(%rbp)
	sete	%al
	movzbl	%al, %eax
	testl	%eax, %eax
	setne	%al
	testb	%al, %al
	je	.L236
	movq	32(%rbp), %rax
	movq	(%rax), %rdx
	movq	32(%rbp), %rax
	movq	(%rax), %rax
	movq	(%rax), %rax
	subq	$24, %rax
	movq	(%rax), %rax
	leaq	(%rdx,%rax), %rbx
	movq	32(%rbp), %rax
	movq	(%rax), %rdx
	movq	32(%rbp), %rax
	movq	(%rax), %rax
	movq	(%rax), %rax
	subq	$24, %rax
	movq	(%rax), %rax
	addq	%rdx, %rax
	movq	%rax, %rcx
	call	_ZNKSt9basic_iosIcSt11char_traitsIcEE7rdstateEv
	movl	$2, %edx
	movl	%eax, %ecx
	call	_ZStorSt12_Ios_IostateS_
	movl	%eax, %edx
	movq	%rbx, %rcx
	call	_ZNSt9basic_iosIcSt11char_traitsIcEE5clearESt12_Ios_Iostate
.L236:
	movl	-4(%rbp), %eax
	addq	$56, %rsp
	popq	%rbx
	popq	%rbp
	ret
	.seh_endproc
	.section	.text$_ZN8nlohmann16json_abi_v3_12_06detail11parse_errorD1Ev,"x"
	.linkonce discard
	.align 2
	.globl	_ZN8nlohmann16json_abi_v3_12_06detail11parse_errorD1Ev
	.def	_ZN8nlohmann16json_abi_v3_12_06detail11parse_errorD1Ev;	.scl	2;	.type	32;	.endef
	.seh_proc	_ZN8nlohmann16json_abi_v3_12_06detail11parse_errorD1Ev
_ZN8nlohmann16json_abi_v3_12_06detail11parse_errorD1Ev:
.LFB7102:
	pushq	%rbp
	.seh_pushreg	%rbp
	movq	%rsp, %rbp
	.seh_setframe	%rbp, 0
	subq	$32, %rsp
	.seh_stackalloc	32
	.seh_endprologue
	movq	%rcx, 16(%rbp)
	leaq	16+_ZTVN8nlohmann16json_abi_v3_12_06detail11parse_errorE(%rip), %rdx
	movq	16(%rbp), %rax
	movq	%rdx, (%rax)
	movq	16(%rbp), %rax
	movq	%rax, %rcx
	call	_ZN8nlohmann16json_abi_v3_12_06detail9exceptionD2Ev
	nop
	addq	$32, %rsp
	popq	%rbp
	ret
	.seh_endproc
	.section	.text$_ZN8nlohmann16json_abi_v3_12_06detail11parse_errorD0Ev,"x"
	.linkonce discard
	.align 2
	.globl	_ZN8nlohmann16json_abi_v3_12_06detail11parse_errorD0Ev
	.def	_ZN8nlohmann16json_abi_v3_12_06detail11parse_errorD0Ev;	.scl	2;	.type	32;	.endef
	.seh_proc	_ZN8nlohmann16json_abi_v3_12_06detail11parse_errorD0Ev
_ZN8nlohmann16json_abi_v3_12_06detail11parse_errorD0Ev:
.LFB7103:
	pushq	%rbp
	.seh_pushreg	%rbp
	movq	%rsp, %rbp
	.seh_setframe	%rbp, 0
	subq	$32, %rsp
	.seh_stackalloc	32
	.seh_endprologue
	movq	%rcx, 16(%rbp)
	movq	16(%rbp), %rax
	movq	%rax, %rcx
	call	_ZN8nlohmann16json_abi_v3_12_06detail11parse_errorD1Ev
	movq	16(%rbp), %rax
	movl	$40, %edx
	movq	%rax, %rcx
	call	_ZdlPvy
	nop
	addq	$32, %rsp
	popq	%rbp
	ret
	.seh_endproc
	.section	.text$_ZN8nlohmann16json_abi_v3_12_06detail13input_adapterERSi,"x"
	.linkonce discard
	.globl	_ZN8nlohmann16json_abi_v3_12_06detail13input_adapterERSi
	.def	_ZN8nlohmann16json_abi_v3_12_06detail13input_adapterERSi;	.scl	2;	.type	32;	.endef
	.seh_proc	_ZN8nlohmann16json_abi_v3_12_06detail13input_adapterERSi
_ZN8nlohmann16json_abi_v3_12_06detail13input_adapterERSi:
.LFB7104:
	pushq	%rbp
	.seh_pushreg	%rbp
	movq	%rsp, %rbp
	.seh_setframe	%rbp, 0
	subq	$32, %rsp
	.seh_stackalloc	32
	.seh_endprologue
	movq	%rcx, 16(%rbp)
	movq	%rdx, 24(%rbp)
	movq	24(%rbp), %rdx
	movq	16(%rbp), %rax
	movq	%rax, %rcx
	call	_ZN8nlohmann16json_abi_v3_12_06detail20input_stream_adapterC1ERSi
	movq	16(%rbp), %rax
	addq	$32, %rsp
	popq	%rbp
	ret
	.seh_endproc
	.section	.text$_ZN8nlohmann16json_abi_v3_12_06detail12unknown_sizeEv,"x"
	.linkonce discard
	.globl	_ZN8nlohmann16json_abi_v3_12_06detail12unknown_sizeEv
	.def	_ZN8nlohmann16json_abi_v3_12_06detail12unknown_sizeEv;	.scl	2;	.type	32;	.endef
	.seh_proc	_ZN8nlohmann16json_abi_v3_12_06detail12unknown_sizeEv
_ZN8nlohmann16json_abi_v3_12_06detail12unknown_sizeEv:
.LFB7137:
	pushq	%rbp
	.seh_pushreg	%rbp
	movq	%rsp, %rbp
	.seh_setframe	%rbp, 0
	subq	$32, %rsp
	.seh_stackalloc	32
	.seh_endprologue
	call	_ZNSt14numeric_limitsIyE3maxEv
	addq	$32, %rsp
	popq	%rbp
	ret
	.seh_endproc
	.section	.text$_ZN8nlohmann16json_abi_v3_12_06detail20primitive_iterator_t9set_beginEv,"x"
	.linkonce discard
	.align 2
	.globl	_ZN8nlohmann16json_abi_v3_12_06detail20primitive_iterator_t9set_beginEv
	.def	_ZN8nlohmann16json_abi_v3_12_06detail20primitive_iterator_t9set_beginEv;	.scl	2;	.type	32;	.endef
	.seh_proc	_ZN8nlohmann16json_abi_v3_12_06detail20primitive_iterator_t9set_beginEv
_ZN8nlohmann16json_abi_v3_12_06detail20primitive_iterator_t9set_beginEv:
.LFB7236:
	pushq	%rbp
	.seh_pushreg	%rbp
	movq	%rsp, %rbp
	.seh_setframe	%rbp, 0
	.seh_endprologue
	movq	%rcx, 16(%rbp)
	movq	16(%rbp), %rax
	movq	$0, (%rax)
	nop
	popq	%rbp
	ret
	.seh_endproc
	.section	.text$_ZN8nlohmann16json_abi_v3_12_06detail20primitive_iterator_t7set_endEv,"x"
	.linkonce discard
	.align 2
	.globl	_ZN8nlohmann16json_abi_v3_12_06detail20primitive_iterator_t7set_endEv
	.def	_ZN8nlohmann16json_abi_v3_12_06detail20primitive_iterator_t7set_endEv;	.scl	2;	.type	32;	.endef
	.seh_proc	_ZN8nlohmann16json_abi_v3_12_06detail20primitive_iterator_t7set_endEv
_ZN8nlohmann16json_abi_v3_12_06detail20primitive_iterator_t7set_endEv:
.LFB7237:
	pushq	%rbp
	.seh_pushreg	%rbp
	movq	%rsp, %rbp
	.seh_setframe	%rbp, 0
	.seh_endprologue
	movq	%rcx, 16(%rbp)
	movq	16(%rbp), %rax
	movq	$1, (%rax)
	nop
	popq	%rbp
	ret
	.seh_endproc
	.section	.text$_ZNK8nlohmann16json_abi_v3_12_06detail20primitive_iterator_t8is_beginEv,"x"
	.linkonce discard
	.align 2
	.globl	_ZNK8nlohmann16json_abi_v3_12_06detail20primitive_iterator_t8is_beginEv
	.def	_ZNK8nlohmann16json_abi_v3_12_06detail20primitive_iterator_t8is_beginEv;	.scl	2;	.type	32;	.endef
	.seh_proc	_ZNK8nlohmann16json_abi_v3_12_06detail20primitive_iterator_t8is_beginEv
_ZNK8nlohmann16json_abi_v3_12_06detail20primitive_iterator_t8is_beginEv:
.LFB7238:
	pushq	%rbp
	.seh_pushreg	%rbp
	movq	%rsp, %rbp
	.seh_setframe	%rbp, 0
	.seh_endprologue
	movq	%rcx, 16(%rbp)
	movq	16(%rbp), %rax
	movq	(%rax), %rax
	testq	%rax, %rax
	sete	%al
	popq	%rbp
	ret
	.seh_endproc
	.section	.text$_ZN8nlohmann16json_abi_v3_12_06detaileqENS1_20primitive_iterator_tES2_,"x"
	.linkonce discard
	.globl	_ZN8nlohmann16json_abi_v3_12_06detaileqENS1_20primitive_iterator_tES2_
	.def	_ZN8nlohmann16json_abi_v3_12_06detaileqENS1_20primitive_iterator_tES2_;	.scl	2;	.type	32;	.endef
	.seh_proc	_ZN8nlohmann16json_abi_v3_12_06detaileqENS1_20primitive_iterator_tES2_
_ZN8nlohmann16json_abi_v3_12_06detaileqENS1_20primitive_iterator_tES2_:
.LFB7240:
	pushq	%rbp
	.seh_pushreg	%rbp
	movq	%rsp, %rbp
	.seh_setframe	%rbp, 0
	.seh_endprologue
	movq	%rcx, 16(%rbp)
	movq	%rdx, 24(%rbp)
	movq	16(%rbp), %rdx
	movq	24(%rbp), %rax
	cmpq	%rax, %rdx
	sete	%al
	popq	%rbp
	ret
	.seh_endproc
	.section	.text$_ZN8nlohmann16json_abi_v3_12_06detail20primitive_iterator_tppEv,"x"
	.linkonce discard
	.align 2
	.globl	_ZN8nlohmann16json_abi_v3_12_06detail20primitive_iterator_tppEv
	.def	_ZN8nlohmann16json_abi_v3_12_06detail20primitive_iterator_tppEv;	.scl	2;	.type	32;	.endef
	.seh_proc	_ZN8nlohmann16json_abi_v3_12_06detail20primitive_iterator_tppEv
_ZN8nlohmann16json_abi_v3_12_06detail20primitive_iterator_tppEv:
.LFB7244:
	pushq	%rbp
	.seh_pushreg	%rbp
	movq	%rsp, %rbp
	.seh_setframe	%rbp, 0
	.seh_endprologue
	movq	%rcx, 16(%rbp)
	movq	16(%rbp), %rax
	movq	(%rax), %rax
	leaq	1(%rax), %rdx
	movq	16(%rbp), %rax
	movq	%rdx, (%rax)
	movq	16(%rbp), %rax
	popq	%rbp
	ret
	.seh_endproc
	.section	.text$_ZN8nlohmann16json_abi_v3_12_06detail9dtoa_impl5diyfpC1Eyi,"x"
	.linkonce discard
	.align 2
	.globl	_ZN8nlohmann16json_abi_v3_12_06detail9dtoa_impl5diyfpC1Eyi
	.def	_ZN8nlohmann16json_abi_v3_12_06detail9dtoa_impl5diyfpC1Eyi;	.scl	2;	.type	32;	.endef
	.seh_proc	_ZN8nlohmann16json_abi_v3_12_06detail9dtoa_impl5diyfpC1Eyi
_ZN8nlohmann16json_abi_v3_12_06detail9dtoa_impl5diyfpC1Eyi:
.LFB7402:
	pushq	%rbp
	.seh_pushreg	%rbp
	movq	%rsp, %rbp
	.seh_setframe	%rbp, 0
	.seh_endprologue
	movq	%rcx, 16(%rbp)
	movq	%rdx, 24(%rbp)
	movl	%r8d, 32(%rbp)
	movq	16(%rbp), %rax
	movq	24(%rbp), %rdx
	movq	%rdx, (%rax)
	movq	16(%rbp), %rax
	movl	32(%rbp), %edx
	movl	%edx, 8(%rax)
	nop
	popq	%rbp
	ret
	.seh_endproc
	.section .rdata,"dr"
.LC8:
	.ascii "json.hpp\0"
.LC9:
	.ascii "x.e == y.e\0"
.LC10:
	.ascii "x.f >= y.f\0"
	.section	.text$_ZN8nlohmann16json_abi_v3_12_06detail9dtoa_impl5diyfp3subERKS3_S5_,"x"
	.linkonce discard
	.globl	_ZN8nlohmann16json_abi_v3_12_06detail9dtoa_impl5diyfp3subERKS3_S5_
	.def	_ZN8nlohmann16json_abi_v3_12_06detail9dtoa_impl5diyfp3subERKS3_S5_;	.scl	2;	.type	32;	.endef
	.seh_proc	_ZN8nlohmann16json_abi_v3_12_06detail9dtoa_impl5diyfp3subERKS3_S5_
_ZN8nlohmann16json_abi_v3_12_06detail9dtoa_impl5diyfp3subERKS3_S5_:
.LFB7403:
	pushq	%rbp
	.seh_pushreg	%rbp
	movq	%rsp, %rbp
	.seh_setframe	%rbp, 0
	subq	$32, %rsp
	.seh_stackalloc	32
	.seh_endprologue
	movq	%rcx, 16(%rbp)
	movq	%rdx, 24(%rbp)
	movq	%r8, 32(%rbp)
	movq	24(%rbp), %rax
	movl	8(%rax), %edx
	movq	32(%rbp), %rax
	movl	8(%rax), %eax
	cmpl	%eax, %edx
	je	.L254
	leaq	.LC8(%rip), %rdx
	leaq	.LC9(%rip), %rax
	movl	$18145, %r8d
	movq	%rax, %rcx
	call	_assert
.L254:
	movq	24(%rbp), %rax
	movq	(%rax), %rdx
	movq	32(%rbp), %rax
	movq	(%rax), %rax
	cmpq	%rax, %rdx
	jnb	.L255
	leaq	.LC8(%rip), %rdx
	leaq	.LC10(%rip), %rax
	movl	$18146, %r8d
	movq	%rax, %rcx
	call	_assert
.L255:
	movq	24(%rbp), %rax
	movq	(%rax), %rdx
	movq	32(%rbp), %rax
	movq	(%rax), %rax
	subq	%rax, %rdx
	movq	24(%rbp), %rax
	movl	8(%rax), %ecx
	movq	16(%rbp), %rax
	movl	%ecx, %r8d
	movq	%rax, %rcx
	call	_ZN8nlohmann16json_abi_v3_12_06detail9dtoa_impl5diyfpC1Eyi
	movq	16(%rbp), %rax
	addq	$32, %rsp
	popq	%rbp
	ret
	.seh_handler	__gxx_personality_seh0, @unwind, @except
	.seh_handlerdata
.LLSDA7403:
	.byte	0xff
	.byte	0xff
	.byte	0x1
	.uleb128 .LLSDACSE7403-.LLSDACSB7403
.LLSDACSB7403:
.LLSDACSE7403:
	.section	.text$_ZN8nlohmann16json_abi_v3_12_06detail9dtoa_impl5diyfp3subERKS3_S5_,"x"
	.linkonce discard
	.seh_endproc
	.section	.text$_ZN8nlohmann16json_abi_v3_12_06detail9dtoa_impl5diyfp3mulERKS3_S5_,"x"
	.linkonce discard
	.globl	_ZN8nlohmann16json_abi_v3_12_06detail9dtoa_impl5diyfp3mulERKS3_S5_
	.def	_ZN8nlohmann16json_abi_v3_12_06detail9dtoa_impl5diyfp3mulERKS3_S5_;	.scl	2;	.type	32;	.endef
	.seh_proc	_ZN8nlohmann16json_abi_v3_12_06detail9dtoa_impl5diyfp3mulERKS3_S5_
_ZN8nlohmann16json_abi_v3_12_06detail9dtoa_impl5diyfp3mulERKS3_S5_:
.LFB7404:
	pushq	%rbp
	.seh_pushreg	%rbp
	movq	%rsp, %rbp
	.seh_setframe	%rbp, 0
	subq	$160, %rsp
	.seh_stackalloc	160
	.seh_endprologue
	movq	%rcx, 16(%rbp)
	movq	%rdx, 24(%rbp)
	movq	%r8, 32(%rbp)
	movq	24(%rbp), %rax
	movq	(%rax), %rax
	andl	$4294967295, %eax
	movq	%rax, -8(%rbp)
	movq	24(%rbp), %rax
	movq	(%rax), %rax
	shrq	$32, %rax
	movq	%rax, -16(%rbp)
	movq	32(%rbp), %rax
	movq	(%rax), %rax
	andl	$4294967295, %eax
	movq	%rax, -24(%rbp)
	movq	32(%rbp), %rax
	movq	(%rax), %rax
	shrq	$32, %rax
	movq	%rax, -32(%rbp)
	movq	-8(%rbp), %rax
	imulq	-24(%rbp), %rax
	movq	%rax, -40(%rbp)
	movq	-8(%rbp), %rax
	imulq	-32(%rbp), %rax
	movq	%rax, -48(%rbp)
	movq	-16(%rbp), %rax
	imulq	-24(%rbp), %rax
	movq	%rax, -56(%rbp)
	movq	-16(%rbp), %rax
	imulq	-32(%rbp), %rax
	movq	%rax, -64(%rbp)
	movq	-40(%rbp), %rax
	shrq	$32, %rax
	movq	%rax, -72(%rbp)
	movq	-48(%rbp), %rax
	movl	%eax, %eax
	movq	%rax, -80(%rbp)
	movq	-48(%rbp), %rax
	shrq	$32, %rax
	movq	%rax, -88(%rbp)
	movq	-56(%rbp), %rax
	movl	%eax, %eax
	movq	%rax, -96(%rbp)
	movq	-56(%rbp), %rax
	shrq	$32, %rax
	movq	%rax, -104(%rbp)
	movq	-72(%rbp), %rdx
	movq	-80(%rbp), %rax
	addq	%rax, %rdx
	movq	-96(%rbp), %rax
	addq	%rdx, %rax
	movq	%rax, -112(%rbp)
	movl	$2147483648, %eax
	addq	%rax, -112(%rbp)
	movq	-64(%rbp), %rdx
	movq	-104(%rbp), %rax
	addq	%rax, %rdx
	movq	-88(%rbp), %rax
	addq	%rax, %rdx
	movq	-112(%rbp), %rax
	shrq	$32, %rax
	addq	%rdx, %rax
	movq	%rax, -120(%rbp)
	movq	24(%rbp), %rax
	movl	8(%rax), %edx
	movq	32(%rbp), %rax
	movl	8(%rax), %eax
	addl	%edx, %eax
	leal	64(%rax), %ecx
	movq	-120(%rbp), %rdx
	movq	16(%rbp), %rax
	movl	%ecx, %r8d
	movq	%rax, %rcx
	call	_ZN8nlohmann16json_abi_v3_12_06detail9dtoa_impl5diyfpC1Eyi
	movq	16(%rbp), %rax
	addq	$160, %rsp
	popq	%rbp
	ret
	.seh_endproc
	.section .rdata,"dr"
.LC11:
	.ascii "x.f != 0\0"
	.section	.text$_ZN8nlohmann16json_abi_v3_12_06detail9dtoa_impl5diyfp9normalizeES3_,"x"
	.linkonce discard
	.globl	_ZN8nlohmann16json_abi_v3_12_06detail9dtoa_impl5diyfp9normalizeES3_
	.def	_ZN8nlohmann16json_abi_v3_12_06detail9dtoa_impl5diyfp9normalizeES3_;	.scl	2;	.type	32;	.endef
	.seh_proc	_ZN8nlohmann16json_abi_v3_12_06detail9dtoa_impl5diyfp9normalizeES3_
_ZN8nlohmann16json_abi_v3_12_06detail9dtoa_impl5diyfp9normalizeES3_:
.LFB7405:
	pushq	%rbp
	.seh_pushreg	%rbp
	pushq	%rbx
	.seh_pushreg	%rbx
	subq	$56, %rsp
	.seh_stackalloc	56
	leaq	48(%rsp), %rbp
	.seh_setframe	%rbp, 48
	.seh_endprologue
	movq	%rcx, 32(%rbp)
	movq	%rdx, %rbx
	movq	(%rbx), %rax
	movq	8(%rbx), %rdx
	movq	%rax, -16(%rbp)
	movq	%rdx, -8(%rbp)
	movq	-16(%rbp), %rax
	testq	%rax, %rax
	jne	.L261
	leaq	.LC8(%rip), %rdx
	leaq	.LC11(%rip), %rax
	movl	$18222, %r8d
	movq	%rax, %rcx
	call	_assert
.L262:
	movq	-16(%rbp), %rax
	addq	%rax, %rax
	movq	%rax, -16(%rbp)
	movl	-8(%rbp), %eax
	subl	$1, %eax
	movl	%eax, -8(%rbp)
.L261:
	movq	-16(%rbp), %rax
	testq	%rax, %rax
	jns	.L262
	movq	32(%rbp), %rcx
	movq	-16(%rbp), %rax
	movq	-8(%rbp), %rdx
	movq	%rax, (%rcx)
	movq	%rdx, 8(%rcx)
	movq	32(%rbp), %rax
	addq	$56, %rsp
	popq	%rbx
	popq	%rbp
	ret
	.seh_handler	__gxx_personality_seh0, @unwind, @except
	.seh_handlerdata
.LLSDA7405:
	.byte	0xff
	.byte	0xff
	.byte	0x1
	.uleb128 .LLSDACSE7405-.LLSDACSB7405
.LLSDACSB7405:
.LLSDACSE7405:
	.section	.text$_ZN8nlohmann16json_abi_v3_12_06detail9dtoa_impl5diyfp9normalizeES3_,"x"
	.linkonce discard
	.seh_endproc
	.section .rdata,"dr"
.LC12:
	.ascii "delta >= 0\0"
	.align 8
.LC13:
	.ascii "((x.f << delta) >> delta) == x.f\0"
	.section	.text$_ZN8nlohmann16json_abi_v3_12_06detail9dtoa_impl5diyfp12normalize_toERKS3_i,"x"
	.linkonce discard
	.globl	_ZN8nlohmann16json_abi_v3_12_06detail9dtoa_impl5diyfp12normalize_toERKS3_i
	.def	_ZN8nlohmann16json_abi_v3_12_06detail9dtoa_impl5diyfp12normalize_toERKS3_i;	.scl	2;	.type	32;	.endef
	.seh_proc	_ZN8nlohmann16json_abi_v3_12_06detail9dtoa_impl5diyfp12normalize_toERKS3_i
_ZN8nlohmann16json_abi_v3_12_06detail9dtoa_impl5diyfp12normalize_toERKS3_i:
.LFB7406:
	pushq	%rbp
	.seh_pushreg	%rbp
	movq	%rsp, %rbp
	.seh_setframe	%rbp, 0
	subq	$48, %rsp
	.seh_stackalloc	48
	.seh_endprologue
	movq	%rcx, 16(%rbp)
	movq	%rdx, 24(%rbp)
	movl	%r8d, 32(%rbp)
	movq	24(%rbp), %rax
	movl	8(%rax), %eax
	subl	32(%rbp), %eax
	movl	%eax, -4(%rbp)
	cmpl	$0, -4(%rbp)
	jns	.L265
	leaq	.LC8(%rip), %rdx
	leaq	.LC12(%rip), %rax
	movl	$18241, %r8d
	movq	%rax, %rcx
	call	_assert
.L265:
	movq	24(%rbp), %rax
	movq	(%rax), %rdx
	movl	-4(%rbp), %eax
	movl	%eax, %ecx
	salq	%cl, %rdx
	movl	-4(%rbp), %eax
	movl	%eax, %ecx
	shrq	%cl, %rdx
	movq	24(%rbp), %rax
	movq	(%rax), %rax
	cmpq	%rax, %rdx
	je	.L266
	leaq	.LC8(%rip), %rdx
	leaq	.LC13(%rip), %rax
	movl	$18242, %r8d
	movq	%rax, %rcx
	call	_assert
.L266:
	movq	24(%rbp), %rax
	movq	(%rax), %rdx
	movl	-4(%rbp), %eax
	movl	%eax, %ecx
	salq	%cl, %rdx
	movl	32(%rbp), %ecx
	movq	16(%rbp), %rax
	movl	%ecx, %r8d
	movq	%rax, %rcx
	call	_ZN8nlohmann16json_abi_v3_12_06detail9dtoa_impl5diyfpC1Eyi
	movq	16(%rbp), %rax
	addq	$48, %rsp
	popq	%rbp
	ret
	.seh_handler	__gxx_personality_seh0, @unwind, @except
	.seh_handlerdata
.LLSDA7406:
	.byte	0xff
	.byte	0xff
	.byte	0x1
	.uleb128 .LLSDACSE7406-.LLSDACSB7406
.LLSDACSB7406:
.LLSDACSE7406:
	.section	.text$_ZN8nlohmann16json_abi_v3_12_06detail9dtoa_impl5diyfp12normalize_toERKS3_i,"x"
	.linkonce discard
	.seh_endproc
	.section .rdata,"dr"
	.align 4
_ZN8nlohmann16json_abi_v3_12_06detail9dtoa_implL6kAlphaE:
	.long	-60
	.align 4
_ZN8nlohmann16json_abi_v3_12_06detail9dtoa_implL6kGammaE:
	.long	-32
	.globl	_ZZN8nlohmann16json_abi_v3_12_06detail9dtoa_impl36get_cached_power_for_binary_exponentEiE13kCachedPowers
	.section	.rdata$_ZZN8nlohmann16json_abi_v3_12_06detail9dtoa_impl36get_cached_power_for_binary_exponentEiE13kCachedPowers,"dr"
	.linkonce same_size
	.align 32
_ZZN8nlohmann16json_abi_v3_12_06detail9dtoa_impl36get_cached_power_for_binary_exponentEiE13kCachedPowers:
	.quad	-6093090917745768758
	.long	-1060
	.long	-300
	.quad	-38366372719436721
	.long	-1034
	.long	-292
	.quad	-4731433901725329908
	.long	-1007
	.long	-284
	.quad	-8228041688891786180
	.long	-980
	.long	-276
	.quad	-3219690930897053053
	.long	-954
	.long	-268
	.quad	-7101705404292871755
	.long	-927
	.long	-260
	.quad	-1541319077368263733
	.long	-901
	.long	-252
	.quad	-5851220927660403859
	.long	-874
	.long	-244
	.quad	-9062348037703676329
	.long	-847
	.long	-236
	.quad	-4462904269766699465
	.long	-821
	.long	-228
	.quad	-8027971522334779313
	.long	-794
	.long	-220
	.quad	-2921563150702462265
	.long	-768
	.long	-212
	.quad	-6879582898840692748
	.long	-741
	.long	-204
	.quad	-1210330751515841307
	.long	-715
	.long	-196
	.quad	-5604615407819967858
	.long	-688
	.long	-188
	.quad	-8878612607581929669
	.long	-661
	.long	-180
	.quad	-4189117143640191558
	.long	-635
	.long	-172
	.quad	-7823984217374209642
	.long	-608
	.long	-164
	.quad	-2617598379430861436
	.long	-582
	.long	-156
	.quad	-6653111496142234890
	.long	-555
	.long	-148
	.quad	-872862063775190746
	.long	-529
	.long	-140
	.quad	-5353181642124984136
	.long	-502
	.long	-132
	.quad	-8691279853972075893
	.long	-475
	.long	-124
	.quad	-3909969587797413805
	.long	-449
	.long	-116
	.quad	-7616003081050118571
	.long	-422
	.long	-108
	.quad	-2307682335666372931
	.long	-396
	.long	-100
	.quad	-6422206049907525489
	.long	-369
	.long	-92
	.quad	-528786136287117932
	.long	-343
	.long	-84
	.quad	-5096825099203863601
	.long	-316
	.long	-76
	.quad	-8500279345513818773
	.long	-289
	.long	-68
	.quad	-3625356651333078602
	.long	-263
	.long	-60
	.quad	-7403949918844649556
	.long	-236
	.long	-52
	.quad	-1991698500497491194
	.long	-210
	.long	-44
	.quad	-6186779746782440749
	.long	-183
	.long	-36
	.quad	-177973607073265138
	.long	-157
	.long	-28
	.quad	-4835449396872013077
	.long	-130
	.long	-20
	.quad	-8305539271883716404
	.long	-103
	.long	-12
	.quad	-3335171328526686932
	.long	-77
	.long	-4
	.quad	-7187745005283311616
	.long	-50
	.long	4
	.quad	-1669528073709551616
	.long	-24
	.long	12
	.quad	-5946744073709551616
	.long	3
	.long	20
	.quad	-9133518327554766460
	.long	30
	.long	28
	.quad	-4568956265895094861
	.long	56
	.long	36
	.quad	-8106986416796705680
	.long	83
	.long	44
	.quad	-3039304518611664792
	.long	109
	.long	52
	.quad	-6967307053960650171
	.long	136
	.long	60
	.quad	-1341049929119499481
	.long	162
	.long	68
	.quad	-5702008784649933400
	.long	189
	.long	76
	.quad	-8951176327949752869
	.long	216
	.long	84
	.quad	-4297245513042813542
	.long	242
	.long	92
	.quad	-7904546130479028392
	.long	269
	.long	100
	.quad	-2737644984756826646
	.long	295
	.long	108
	.quad	-6742553186979055798
	.long	322
	.long	116
	.quad	-1006140569036166267
	.long	348
	.long	124
	.quad	-5452481866653427593
	.long	375
	.long	132
	.quad	-8765264286586255934
	.long	402
	.long	140
	.quad	-4020214983419339459
	.long	428
	.long	148
	.quad	-7698142301602209613
	.long	455
	.long	156
	.quad	-2430079312244744221
	.long	481
	.long	164
	.quad	-6513398903789220827
	.long	508
	.long	172
	.quad	-664674077828931748
	.long	534
	.long	180
	.quad	-5198069505264599346
	.long	561
	.long	188
	.quad	-8575712306248138270
	.long	588
	.long	196
	.quad	-3737760522056206171
	.long	614
	.long	204
	.quad	-7487697328667536417
	.long	641
	.long	212
	.quad	-2116491865831296966
	.long	667
	.long	220
	.quad	-6279758049420528746
	.long	694
	.long	228
	.quad	-316522074587315140
	.long	720
	.long	236
	.quad	-4938676049251384304
	.long	747
	.long	244
	.quad	-8382449121214030822
	.long	774
	.long	252
	.quad	-3449775934753242068
	.long	800
	.long	260
	.quad	-7273132090830278359
	.long	827
	.long	268
	.quad	-1796764746270372707
	.long	853
	.long	276
	.quad	-6041542782089432023
	.long	880
	.long	284
	.quad	-9204148869281624187
	.long	907
	.long	292
	.quad	-4674203974643163859
	.long	933
	.long	300
	.quad	-8185402070463610993
	.long	960
	.long	308
	.quad	-3156152948152813503
	.long	986
	.long	316
	.quad	-7054365918152680535
	.long	1013
	.long	324
	.section .rdata,"dr"
.LC14:
	.ascii "e >= -1500\0"
.LC15:
	.ascii "e <= 1500\0"
.LC16:
	.ascii "index >= 0\0"
	.align 8
.LC17:
	.ascii "static_cast<std::size_t>(index) < kCachedPowers.size()\0"
.LC18:
	.ascii "kAlpha <= cached.e + e + 64\0"
.LC19:
	.ascii "kGamma >= cached.e + e + 64\0"
	.section	.text$_ZN8nlohmann16json_abi_v3_12_06detail9dtoa_impl36get_cached_power_for_binary_exponentEi,"x"
	.linkonce discard
	.globl	_ZN8nlohmann16json_abi_v3_12_06detail9dtoa_impl36get_cached_power_for_binary_exponentEi
	.def	_ZN8nlohmann16json_abi_v3_12_06detail9dtoa_impl36get_cached_power_for_binary_exponentEi;	.scl	2;	.type	32;	.endef
	.seh_proc	_ZN8nlohmann16json_abi_v3_12_06detail9dtoa_impl36get_cached_power_for_binary_exponentEi
_ZN8nlohmann16json_abi_v3_12_06detail9dtoa_impl36get_cached_power_for_binary_exponentEi:
.LFB7408:
	pushq	%rbp
	.seh_pushreg	%rbp
	movq	%rsp, %rbp
	.seh_setframe	%rbp, 0
	subq	$64, %rsp
	.seh_stackalloc	64
	.seh_endprologue
	movq	%rcx, 16(%rbp)
	movl	%edx, 24(%rbp)
	movl	$-300, -4(%rbp)
	movl	$8, -8(%rbp)
	cmpl	$-1500, 24(%rbp)
	jge	.L269
	leaq	.LC8(%rip), %rdx
	leaq	.LC14(%rip), %rax
	movl	$18545, %r8d
	movq	%rax, %rcx
	call	_assert
.L269:
	cmpl	$1500, 24(%rbp)
	jle	.L270
	leaq	.LC8(%rip), %rdx
	leaq	.LC15(%rip), %rax
	movl	$18546, %r8d
	movq	%rax, %rcx
	call	_assert
.L270:
	movl	$-61, %eax
	subl	24(%rbp), %eax
	movl	%eax, -12(%rbp)
	movl	-12(%rbp), %eax
	imull	$78913, %eax, %eax
	leal	262143(%rax), %edx
	testl	%eax, %eax
	cmovs	%edx, %eax
	sarl	$18, %eax
	movl	%eax, %edx
	cmpl	$0, -12(%rbp)
	setg	%al
	movzbl	%al, %eax
	addl	%edx, %eax
	movl	%eax, -16(%rbp)
	movl	-16(%rbp), %eax
	addl	$307, %eax
	leal	7(%rax), %edx
	testl	%eax, %eax
	cmovs	%edx, %eax
	sarl	$3, %eax
	movl	%eax, -20(%rbp)
	cmpl	$0, -20(%rbp)
	jns	.L271
	leaq	.LC8(%rip), %rdx
	leaq	.LC16(%rip), %rax
	movl	$18551, %r8d
	movq	%rax, %rcx
	call	_assert
.L271:
	movl	-20(%rbp), %eax
	cltq
	movl	$79, %edx
	cmpq	%rdx, %rax
	jb	.L273
	leaq	.LC8(%rip), %rdx
	leaq	.LC17(%rip), %rax
	movl	$18552, %r8d
	movq	%rax, %rcx
	call	_assert
.L273:
	movl	-20(%rbp), %eax
	cltq
	leaq	_ZZN8nlohmann16json_abi_v3_12_06detail9dtoa_impl36get_cached_power_for_binary_exponentEiE13kCachedPowers(%rip), %rcx
	movq	%rax, %rdx
	call	_ZNKSt5arrayIN8nlohmann16json_abi_v3_12_06detail9dtoa_impl12cached_powerELy79EEixEy
	movq	16(%rbp), %rcx
	movq	8(%rax), %rdx
	movq	(%rax), %rax
	movq	%rax, (%rcx)
	movq	%rdx, 8(%rcx)
	movq	16(%rbp), %rax
	movl	8(%rax), %edx
	movl	24(%rbp), %eax
	addl	%edx, %eax
	cmpl	$-124, %eax
	jge	.L274
	leaq	.LC8(%rip), %rdx
	leaq	.LC18(%rip), %rax
	movl	$18555, %r8d
	movq	%rax, %rcx
	call	_assert
.L274:
	movq	16(%rbp), %rax
	movl	8(%rax), %edx
	movl	24(%rbp), %eax
	addl	%edx, %eax
	cmpl	$-95, %eax
	jl	.L275
	leaq	.LC8(%rip), %rdx
	leaq	.LC19(%rip), %rax
	movl	$18556, %r8d
	movq	%rax, %rcx
	call	_assert
.L275:
	nop
	movq	16(%rbp), %rax
	addq	$64, %rsp
	popq	%rbp
	ret
	.seh_endproc
	.section	.text$_ZN8nlohmann16json_abi_v3_12_06detail9dtoa_impl18find_largest_pow10EjRj,"x"
	.linkonce discard
	.globl	_ZN8nlohmann16json_abi_v3_12_06detail9dtoa_impl18find_largest_pow10EjRj
	.def	_ZN8nlohmann16json_abi_v3_12_06detail9dtoa_impl18find_largest_pow10EjRj;	.scl	2;	.type	32;	.endef
	.seh_proc	_ZN8nlohmann16json_abi_v3_12_06detail9dtoa_impl18find_largest_pow10EjRj
_ZN8nlohmann16json_abi_v3_12_06detail9dtoa_impl18find_largest_pow10EjRj:
.LFB7409:
	pushq	%rbp
	.seh_pushreg	%rbp
	movq	%rsp, %rbp
	.seh_setframe	%rbp, 0
	.seh_endprologue
	movl	%ecx, 16(%rbp)
	movq	%rdx, 24(%rbp)
	cmpl	$999999999, 16(%rbp)
	jbe	.L278
	movq	24(%rbp), %rax
	movl	$1000000000, (%rax)
	movl	$10, %eax
	jmp	.L279
.L278:
	cmpl	$99999999, 16(%rbp)
	jbe	.L280
	movq	24(%rbp), %rax
	movl	$100000000, (%rax)
	movl	$9, %eax
	jmp	.L279
.L280:
	cmpl	$9999999, 16(%rbp)
	jbe	.L281
	movq	24(%rbp), %rax
	movl	$10000000, (%rax)
	movl	$8, %eax
	jmp	.L279
.L281:
	cmpl	$999999, 16(%rbp)
	jbe	.L282
	movq	24(%rbp), %rax
	movl	$1000000, (%rax)
	movl	$7, %eax
	jmp	.L279
.L282:
	cmpl	$99999, 16(%rbp)
	jbe	.L283
	movq	24(%rbp), %rax
	movl	$100000, (%rax)
	movl	$6, %eax
	jmp	.L279
.L283:
	cmpl	$9999, 16(%rbp)
	jbe	.L284
	movq	24(%rbp), %rax
	movl	$10000, (%rax)
	movl	$5, %eax
	jmp	.L279
.L284:
	cmpl	$999, 16(%rbp)
	jbe	.L285
	movq	24(%rbp), %rax
	movl	$1000, (%rax)
	movl	$4, %eax
	jmp	.L279
.L285:
	cmpl	$99, 16(%rbp)
	jbe	.L286
	movq	24(%rbp), %rax
	movl	$100, (%rax)
	movl	$3, %eax
	jmp	.L279
.L286:
	cmpl	$9, 16(%rbp)
	jbe	.L287
	movq	24(%rbp), %rax
	movl	$10, (%rax)
	movl	$2, %eax
	jmp	.L279
.L287:
	movq	24(%rbp), %rax
	movl	$1, (%rax)
	movl	$1, %eax
.L279:
	popq	%rbp
	ret
	.seh_endproc
	.section .rdata,"dr"
.LC20:
	.ascii "len >= 1\0"
.LC21:
	.ascii "dist <= delta\0"
.LC22:
	.ascii "rest <= delta\0"
.LC23:
	.ascii "ten_k > 0\0"
.LC24:
	.ascii "buf[len - 1] != '0'\0"
	.section	.text$_ZN8nlohmann16json_abi_v3_12_06detail9dtoa_impl12grisu2_roundEPciyyyy,"x"
	.linkonce discard
	.globl	_ZN8nlohmann16json_abi_v3_12_06detail9dtoa_impl12grisu2_roundEPciyyyy
	.def	_ZN8nlohmann16json_abi_v3_12_06detail9dtoa_impl12grisu2_roundEPciyyyy;	.scl	2;	.type	32;	.endef
	.seh_proc	_ZN8nlohmann16json_abi_v3_12_06detail9dtoa_impl12grisu2_roundEPciyyyy
_ZN8nlohmann16json_abi_v3_12_06detail9dtoa_impl12grisu2_roundEPciyyyy:
.LFB7410:
	pushq	%rbp
	.seh_pushreg	%rbp
	movq	%rsp, %rbp
	.seh_setframe	%rbp, 0
	subq	$32, %rsp
	.seh_stackalloc	32
	.seh_endprologue
	movq	%rcx, 16(%rbp)
	movl	%edx, 24(%rbp)
	movq	%r8, 32(%rbp)
	movq	%r9, 40(%rbp)
	cmpl	$0, 24(%rbp)
	jg	.L289
	leaq	.LC8(%rip), %rdx
	leaq	.LC20(%rip), %rax
	movl	$18622, %r8d
	movq	%rax, %rcx
	call	_assert
.L289:
	movq	32(%rbp), %rax
	cmpq	%rax, 40(%rbp)
	jnb	.L290
	leaq	.LC8(%rip), %rdx
	leaq	.LC21(%rip), %rax
	movl	$18623, %r8d
	movq	%rax, %rcx
	call	_assert
.L290:
	movq	48(%rbp), %rax
	cmpq	%rax, 40(%rbp)
	jnb	.L291
	leaq	.LC8(%rip), %rdx
	leaq	.LC22(%rip), %rax
	movl	$18624, %r8d
	movq	%rax, %rcx
	call	_assert
.L291:
	cmpq	$0, 56(%rbp)
	jne	.L293
	leaq	.LC8(%rip), %rdx
	leaq	.LC23(%rip), %rax
	movl	$18625, %r8d
	movq	%rax, %rcx
	call	_assert
.L296:
	movl	24(%rbp), %eax
	cltq
	leaq	-1(%rax), %rdx
	movq	16(%rbp), %rax
	addq	%rdx, %rax
	movzbl	(%rax), %eax
	cmpb	$48, %al
	jne	.L297
	leaq	.LC8(%rip), %rdx
	leaq	.LC24(%rip), %rax
	movl	$18650, %r8d
	movq	%rax, %rcx
	call	_assert
.L297:
	movl	24(%rbp), %eax
	cltq
	leaq	-1(%rax), %rdx
	movq	16(%rbp), %rax
	addq	%rdx, %rax
	movzbl	(%rax), %edx
	subl	$1, %edx
	movb	%dl, (%rax)
	movq	56(%rbp), %rax
	addq	%rax, 48(%rbp)
.L293:
	movq	48(%rbp), %rax
	cmpq	32(%rbp), %rax
	jnb	.L298
	movq	40(%rbp), %rax
	subq	48(%rbp), %rax
	cmpq	56(%rbp), %rax
	jb	.L298
	movq	48(%rbp), %rdx
	movq	56(%rbp), %rax
	addq	%rdx, %rax
	cmpq	32(%rbp), %rax
	jb	.L296
	movq	32(%rbp), %rax
	subq	48(%rbp), %rax
	movq	48(%rbp), %rcx
	movq	56(%rbp), %rdx
	addq	%rcx, %rdx
	subq	32(%rbp), %rdx
	cmpq	%rax, %rdx
	jb	.L296
.L298:
	nop
	addq	$32, %rsp
	popq	%rbp
	ret
	.seh_endproc
	.section .rdata,"dr"
.LC25:
	.ascii "M_plus.e >= kAlpha\0"
.LC26:
	.ascii "M_plus.e <= kGamma\0"
.LC27:
	.ascii "p1 > 0\0"
.LC28:
	.ascii "d <= 9\0"
.LC29:
	.ascii "p2 > delta\0"
	.align 8
.LC30:
	.ascii "p2 <= (std::numeric_limits<std::uint64_t>::max)() / 10\0"
	.section	.text$_ZN8nlohmann16json_abi_v3_12_06detail9dtoa_impl16grisu2_digit_genEPcRiS4_NS2_5diyfpES5_S5_,"x"
	.linkonce discard
	.globl	_ZN8nlohmann16json_abi_v3_12_06detail9dtoa_impl16grisu2_digit_genEPcRiS4_NS2_5diyfpES5_S5_
	.def	_ZN8nlohmann16json_abi_v3_12_06detail9dtoa_impl16grisu2_digit_genEPcRiS4_NS2_5diyfpES5_S5_;	.scl	2;	.type	32;	.endef
	.seh_proc	_ZN8nlohmann16json_abi_v3_12_06detail9dtoa_impl16grisu2_digit_genEPcRiS4_NS2_5diyfpES5_S5_
_ZN8nlohmann16json_abi_v3_12_06detail9dtoa_impl16grisu2_digit_genEPcRiS4_NS2_5diyfpES5_S5_:
.LFB7411:
	pushq	%rbp
	.seh_pushreg	%rbp
	pushq	%rbx
	.seh_pushreg	%rbx
	subq	$264, %rsp
	.seh_stackalloc	264
	leaq	128(%rsp), %rbp
	.seh_setframe	%rbp, 128
	.seh_endprologue
	movq	%rcx, 160(%rbp)
	movq	%rdx, 168(%rbp)
	movq	%r8, 176(%rbp)
	movq	%r9, %rbx
	movq	(%rbx), %rax
	movq	8(%rbx), %rdx
	movq	%rax, -48(%rbp)
	movq	%rdx, -40(%rbp)
	movq	192(%rbp), %rbx
	movq	(%rbx), %rax
	movq	8(%rbx), %rdx
	movq	%rax, -64(%rbp)
	movq	%rdx, -56(%rbp)
	movq	200(%rbp), %rbx
	movq	(%rbx), %rax
	movq	8(%rbx), %rdx
	movq	%rax, -80(%rbp)
	movq	%rdx, -72(%rbp)
	movl	-72(%rbp), %eax
	cmpl	$-60, %eax
	jge	.L300
	leaq	.LC8(%rip), %rdx
	leaq	.LC25(%rip), %rax
	movl	$18678, %r8d
	movq	%rax, %rcx
	call	_assert
.L300:
	movl	-72(%rbp), %eax
	cmpl	$-31, %eax
	jl	.L301
	leaq	.LC8(%rip), %rdx
	leaq	.LC26(%rip), %rax
	movl	$18679, %r8d
	movq	%rax, %rcx
	call	_assert
.L301:
	movq	%rbp, %rax
	leaq	-48(%rbp), %rcx
	leaq	-80(%rbp), %rdx
	movq	%rcx, %r8
	movq	%rax, %rcx
	call	_ZN8nlohmann16json_abi_v3_12_06detail9dtoa_impl5diyfp3subERKS3_S5_
	movq	0(%rbp), %rax
	movq	%rax, 120(%rbp)
	leaq	16(%rbp), %rax
	leaq	-64(%rbp), %rcx
	leaq	-80(%rbp), %rdx
	movq	%rcx, %r8
	movq	%rax, %rcx
	call	_ZN8nlohmann16json_abi_v3_12_06detail9dtoa_impl5diyfp3subERKS3_S5_
	movq	16(%rbp), %rax
	movq	%rax, 112(%rbp)
	movl	-72(%rbp), %r8d
	movl	-72(%rbp), %eax
	negl	%eax
	movl	$1, %edx
	movl	%eax, %ecx
	salq	%cl, %rdx
	leaq	-16(%rbp), %rax
	movq	%rax, %rcx
	call	_ZN8nlohmann16json_abi_v3_12_06detail9dtoa_impl5diyfpC1Eyi
	movq	-80(%rbp), %rdx
	movl	-8(%rbp), %eax
	negl	%eax
	movl	%eax, %ecx
	shrq	%cl, %rdx
	movq	%rdx, %rax
	movl	%eax, 108(%rbp)
	movq	-80(%rbp), %rdx
	movq	-16(%rbp), %rax
	subq	$1, %rax
	andq	%rdx, %rax
	movq	%rax, 96(%rbp)
	cmpl	$0, 108(%rbp)
	jne	.L302
	leaq	.LC8(%rip), %rdx
	leaq	.LC27(%rip), %rax
	movl	$18700, %r8d
	movq	%rax, %rcx
	call	_assert
.L302:
	movl	$0, -20(%rbp)
	leaq	-20(%rbp), %rdx
	movl	108(%rbp), %eax
	movl	%eax, %ecx
	call	_ZN8nlohmann16json_abi_v3_12_06detail9dtoa_impl18find_largest_pow10EjRj
	movl	%eax, 84(%rbp)
	movl	84(%rbp), %eax
	movl	%eax, 92(%rbp)
	jmp	.L303
.L307:
	movl	-20(%rbp), %ebx
	movl	108(%rbp), %eax
	movl	$0, %edx
	divl	%ebx
	movl	%eax, 52(%rbp)
	movl	-20(%rbp), %ecx
	movl	108(%rbp), %eax
	movl	$0, %edx
	divl	%ecx
	movl	%edx, 48(%rbp)
	cmpl	$9, 52(%rbp)
	jbe	.L304
	leaq	.LC8(%rip), %rdx
	leaq	.LC28(%rip), %rax
	movl	$18736, %r8d
	movq	%rax, %rcx
	call	_assert
.L304:
	movl	52(%rbp), %eax
	addl	$48, %eax
	movl	%eax, %r9d
	movq	160(%rbp), %r8
	movq	168(%rbp), %rax
	movl	(%rax), %eax
	leal	1(%rax), %ecx
	movq	168(%rbp), %rdx
	movl	%ecx, (%rdx)
	cltq
	addq	%r8, %rax
	movb	%r9b, (%rax)
	movl	48(%rbp), %eax
	movl	%eax, 108(%rbp)
	subl	$1, 92(%rbp)
	movl	108(%rbp), %edx
	movl	-8(%rbp), %eax
	negl	%eax
	movl	%eax, %ecx
	salq	%cl, %rdx
	movq	96(%rbp), %rax
	addq	%rdx, %rax
	movq	%rax, 40(%rbp)
	movq	40(%rbp), %rax
	cmpq	%rax, 120(%rbp)
	jb	.L305
	movq	176(%rbp), %rax
	movl	(%rax), %edx
	movl	92(%rbp), %eax
	addl	%eax, %edx
	movq	176(%rbp), %rax
	movl	%edx, (%rax)
	movl	-20(%rbp), %eax
	movl	%eax, %edx
	movl	-8(%rbp), %eax
	negl	%eax
	movl	%eax, %ecx
	salq	%cl, %rdx
	movq	%rdx, %rax
	movq	%rax, 32(%rbp)
	movq	168(%rbp), %rax
	movl	(%rax), %edx
	movq	120(%rbp), %r9
	movq	112(%rbp), %r8
	movq	160(%rbp), %rax
	movq	32(%rbp), %rcx
	movq	%rcx, 40(%rsp)
	movq	40(%rbp), %rcx
	movq	%rcx, 32(%rsp)
	movq	%rax, %rcx
	call	_ZN8nlohmann16json_abi_v3_12_06detail9dtoa_impl12grisu2_roundEPciyyyy
	jmp	.L299
.L305:
	movl	-20(%rbp), %eax
	movl	%eax, %edx
	movl	$3435973837, %eax
	imulq	%rdx, %rax
	shrq	$32, %rax
	shrl	$3, %eax
	movl	%eax, -20(%rbp)
.L303:
	cmpl	$0, 92(%rbp)
	jg	.L307
	movq	96(%rbp), %rax
	cmpq	%rax, 120(%rbp)
	jb	.L308
	leaq	.LC8(%rip), %rdx
	leaq	.LC29(%rip), %rax
	movl	$18823, %r8d
	movq	%rax, %rcx
	call	_assert
.L308:
	movl	$0, 88(%rbp)
.L313:
	call	_ZNSt14numeric_limitsIyE3maxEv
	movabsq	$-3689348814741910323, %rdx
	mulq	%rdx
	movq	%rdx, %rax
	shrq	$3, %rax
	cmpq	96(%rbp), %rax
	jnb	.L309
	leaq	.LC8(%rip), %rdx
	leaq	.LC30(%rip), %rax
	movl	$18834, %r8d
	movq	%rax, %rcx
	call	_assert
.L309:
	movq	96(%rbp), %rdx
	movq	%rdx, %rax
	salq	$2, %rax
	addq	%rdx, %rax
	addq	%rax, %rax
	movq	%rax, 96(%rbp)
	movl	-8(%rbp), %eax
	negl	%eax
	movq	96(%rbp), %rdx
	movl	%eax, %ecx
	shrq	%cl, %rdx
	movq	%rdx, %rax
	movq	%rax, 72(%rbp)
	movq	-16(%rbp), %rax
	subq	$1, %rax
	andq	96(%rbp), %rax
	movq	%rax, 64(%rbp)
	cmpq	$9, 72(%rbp)
	jbe	.L310
	leaq	.LC8(%rip), %rdx
	leaq	.LC28(%rip), %rax
	movl	$18843, %r8d
	movq	%rax, %rcx
	call	_assert
.L310:
	movq	72(%rbp), %rax
	addl	$48, %eax
	movl	%eax, %r9d
	movq	160(%rbp), %r8
	movq	168(%rbp), %rax
	movl	(%rax), %eax
	leal	1(%rax), %ecx
	movq	168(%rbp), %rdx
	movl	%ecx, (%rdx)
	cltq
	addq	%r8, %rax
	movb	%r9b, (%rax)
	movq	64(%rbp), %rax
	movq	%rax, 96(%rbp)
	addl	$1, 88(%rbp)
	movq	120(%rbp), %rdx
	movq	%rdx, %rax
	salq	$2, %rax
	addq	%rdx, %rax
	addq	%rax, %rax
	movq	%rax, 120(%rbp)
	movq	112(%rbp), %rdx
	movq	%rdx, %rax
	salq	$2, %rax
	addq	%rdx, %rax
	addq	%rax, %rax
	movq	%rax, 112(%rbp)
	movq	96(%rbp), %rax
	cmpq	%rax, 120(%rbp)
	jnb	.L315
	jmp	.L313
.L315:
	nop
	movq	176(%rbp), %rax
	movl	(%rax), %eax
	subl	88(%rbp), %eax
	movl	%eax, %edx
	movq	176(%rbp), %rax
	movl	%edx, (%rax)
	movq	-16(%rbp), %rax
	movq	%rax, 56(%rbp)
	movq	168(%rbp), %rax
	movl	(%rax), %edx
	movq	120(%rbp), %r9
	movq	112(%rbp), %r8
	movq	160(%rbp), %rax
	movq	56(%rbp), %rcx
	movq	%rcx, 40(%rsp)
	movq	96(%rbp), %rcx
	movq	%rcx, 32(%rsp)
	movq	%rax, %rcx
	call	_ZN8nlohmann16json_abi_v3_12_06detail9dtoa_impl12grisu2_roundEPciyyyy
	nop
.L299:
	addq	$264, %rsp
	popq	%rbx
	popq	%rbp
	ret
	.seh_endproc
	.section .rdata,"dr"
.LC31:
	.ascii "m_plus.e == m_minus.e\0"
.LC32:
	.ascii "m_plus.e == v.e\0"
	.section	.text$_ZN8nlohmann16json_abi_v3_12_06detail9dtoa_impl6grisu2EPcRiS4_NS2_5diyfpES5_S5_,"x"
	.linkonce discard
	.globl	_ZN8nlohmann16json_abi_v3_12_06detail9dtoa_impl6grisu2EPcRiS4_NS2_5diyfpES5_S5_
	.def	_ZN8nlohmann16json_abi_v3_12_06detail9dtoa_impl6grisu2EPcRiS4_NS2_5diyfpES5_S5_;	.scl	2;	.type	32;	.endef
	.seh_proc	_ZN8nlohmann16json_abi_v3_12_06detail9dtoa_impl6grisu2EPcRiS4_NS2_5diyfpES5_S5_
_ZN8nlohmann16json_abi_v3_12_06detail9dtoa_impl6grisu2EPcRiS4_NS2_5diyfpES5_S5_:
.LFB7412:
	pushq	%rbp
	.seh_pushreg	%rbp
	pushq	%rbx
	.seh_pushreg	%rbx
	subq	$264, %rsp
	.seh_stackalloc	264
	leaq	128(%rsp), %rbp
	.seh_setframe	%rbp, 128
	.seh_endprologue
	movq	%rcx, 160(%rbp)
	movq	%rdx, 168(%rbp)
	movq	%r8, 176(%rbp)
	movq	%r9, %rbx
	movq	(%rbx), %rax
	movq	8(%rbx), %rdx
	movq	%rax, 0(%rbp)
	movq	%rdx, 8(%rbp)
	movq	192(%rbp), %rbx
	movq	(%rbx), %rax
	movq	8(%rbx), %rdx
	movq	%rax, -16(%rbp)
	movq	%rdx, -8(%rbp)
	movq	200(%rbp), %rbx
	movq	(%rbx), %rax
	movq	8(%rbx), %rdx
	movq	%rax, -32(%rbp)
	movq	%rdx, -24(%rbp)
	movl	-24(%rbp), %edx
	movl	8(%rbp), %eax
	cmpl	%eax, %edx
	je	.L317
	leaq	.LC8(%rip), %rdx
	leaq	.LC31(%rip), %rax
	movl	$18904, %r8d
	movq	%rax, %rcx
	call	_assert
.L317:
	movl	-24(%rbp), %edx
	movl	-8(%rbp), %eax
	cmpl	%eax, %edx
	je	.L318
	leaq	.LC8(%rip), %rdx
	leaq	.LC32(%rip), %rax
	movl	$18905, %r8d
	movq	%rax, %rcx
	call	_assert
.L318:
	movl	-24(%rbp), %edx
	leaq	112(%rbp), %rax
	movq	%rax, %rcx
	call	_ZN8nlohmann16json_abi_v3_12_06detail9dtoa_impl36get_cached_power_for_binary_exponentEi
	movl	120(%rbp), %ecx
	movq	112(%rbp), %rdx
	leaq	96(%rbp), %rax
	movl	%ecx, %r8d
	movq	%rax, %rcx
	call	_ZN8nlohmann16json_abi_v3_12_06detail9dtoa_impl5diyfpC1Eyi
	leaq	80(%rbp), %rax
	leaq	96(%rbp), %rcx
	leaq	-16(%rbp), %rdx
	movq	%rcx, %r8
	movq	%rax, %rcx
	call	_ZN8nlohmann16json_abi_v3_12_06detail9dtoa_impl5diyfp3mulERKS3_S5_
	leaq	64(%rbp), %rax
	leaq	96(%rbp), %rcx
	movq	%rbp, %rdx
	movq	%rcx, %r8
	movq	%rax, %rcx
	call	_ZN8nlohmann16json_abi_v3_12_06detail9dtoa_impl5diyfp3mulERKS3_S5_
	leaq	48(%rbp), %rax
	leaq	96(%rbp), %rcx
	leaq	-32(%rbp), %rdx
	movq	%rcx, %r8
	movq	%rax, %rcx
	call	_ZN8nlohmann16json_abi_v3_12_06detail9dtoa_impl5diyfp3mulERKS3_S5_
	movl	72(%rbp), %ecx
	movq	64(%rbp), %rax
	leaq	1(%rax), %rdx
	leaq	32(%rbp), %rax
	movl	%ecx, %r8d
	movq	%rax, %rcx
	call	_ZN8nlohmann16json_abi_v3_12_06detail9dtoa_impl5diyfpC1Eyi
	movl	56(%rbp), %ecx
	movq	48(%rbp), %rax
	leaq	-1(%rax), %rdx
	leaq	16(%rbp), %rax
	movl	%ecx, %r8d
	movq	%rax, %rcx
	call	_ZN8nlohmann16json_abi_v3_12_06detail9dtoa_impl5diyfpC1Eyi
	movl	124(%rbp), %eax
	negl	%eax
	movl	%eax, %edx
	movq	176(%rbp), %rax
	movl	%edx, (%rax)
	movq	32(%rbp), %rax
	movq	40(%rbp), %rdx
	movq	%rax, -48(%rbp)
	movq	%rdx, -40(%rbp)
	movq	80(%rbp), %rax
	movq	88(%rbp), %rdx
	movq	%rax, -64(%rbp)
	movq	%rdx, -56(%rbp)
	movq	16(%rbp), %rax
	movq	24(%rbp), %rdx
	movq	%rax, -80(%rbp)
	movq	%rdx, -72(%rbp)
	leaq	-48(%rbp), %r9
	movq	176(%rbp), %r8
	movq	168(%rbp), %rdx
	movq	160(%rbp), %rax
	leaq	-80(%rbp), %rcx
	movq	%rcx, 40(%rsp)
	leaq	-64(%rbp), %rcx
	movq	%rcx, 32(%rsp)
	movq	%rax, %rcx
	call	_ZN8nlohmann16json_abi_v3_12_06detail9dtoa_impl16grisu2_digit_genEPcRiS4_NS2_5diyfpES5_S5_
	nop
	addq	$264, %rsp
	popq	%rbx
	popq	%rbp
	ret
	.seh_endproc
	.section .rdata,"dr"
.LC33:
	.ascii "e > -1000\0"
.LC34:
	.ascii "e < 1000\0"
	.section	.text$_ZN8nlohmann16json_abi_v3_12_06detail9dtoa_impl15append_exponentEPci,"x"
	.linkonce discard
	.globl	_ZN8nlohmann16json_abi_v3_12_06detail9dtoa_impl15append_exponentEPci
	.def	_ZN8nlohmann16json_abi_v3_12_06detail9dtoa_impl15append_exponentEPci;	.scl	2;	.type	32;	.endef
	.seh_proc	_ZN8nlohmann16json_abi_v3_12_06detail9dtoa_impl15append_exponentEPci
_ZN8nlohmann16json_abi_v3_12_06detail9dtoa_impl15append_exponentEPci:
.LFB7414:
	pushq	%rbp
	.seh_pushreg	%rbp
	movq	%rsp, %rbp
	.seh_setframe	%rbp, 0
	subq	$48, %rsp
	.seh_stackalloc	48
	.seh_endprologue
	movq	%rcx, 16(%rbp)
	movl	%edx, 24(%rbp)
	cmpl	$-999, 24(%rbp)
	jge	.L320
	leaq	.LC8(%rip), %rdx
	leaq	.LC33(%rip), %rax
	movl	$19003, %r8d
	movq	%rax, %rcx
	call	_assert
.L320:
	cmpl	$999, 24(%rbp)
	jle	.L321
	leaq	.LC8(%rip), %rdx
	leaq	.LC34(%rip), %rax
	movl	$19004, %r8d
	movq	%rax, %rcx
	call	_assert
.L321:
	cmpl	$0, 24(%rbp)
	jns	.L322
	negl	24(%rbp)
	movq	16(%rbp), %rax
	leaq	1(%rax), %rdx
	movq	%rdx, 16(%rbp)
	movb	$45, (%rax)
	jmp	.L323
.L322:
	movq	16(%rbp), %rax
	leaq	1(%rax), %rdx
	movq	%rdx, 16(%rbp)
	movb	$43, (%rax)
.L323:
	movl	24(%rbp), %eax
	movl	%eax, -4(%rbp)
	cmpl	$9, -4(%rbp)
	ja	.L324
	movq	16(%rbp), %rax
	leaq	1(%rax), %rdx
	movq	%rdx, 16(%rbp)
	movb	$48, (%rax)
	movl	-4(%rbp), %eax
	addl	$48, %eax
	movl	%eax, %ecx
	movq	16(%rbp), %rax
	leaq	1(%rax), %rdx
	movq	%rdx, 16(%rbp)
	movb	%cl, (%rax)
	jmp	.L325
.L324:
	cmpl	$99, -4(%rbp)
	ja	.L326
	movl	-4(%rbp), %eax
	movl	%eax, %edx
	movl	$3435973837, %eax
	imulq	%rdx, %rax
	shrq	$32, %rax
	shrl	$3, %eax
	addl	$48, %eax
	movl	%eax, %ecx
	movq	16(%rbp), %rax
	leaq	1(%rax), %rdx
	movq	%rdx, 16(%rbp)
	movb	%cl, (%rax)
	movl	-4(%rbp), %ecx
	movl	%ecx, %edx
	movl	$3435973837, %eax
	imulq	%rdx, %rax
	shrq	$32, %rax
	movl	%eax, %edx
	shrl	$3, %edx
	movl	%edx, %eax
	sall	$2, %eax
	addl	%edx, %eax
	addl	%eax, %eax
	subl	%eax, %ecx
	movl	%ecx, %edx
	movl	%edx, -4(%rbp)
	movl	-4(%rbp), %eax
	addl	$48, %eax
	movl	%eax, %ecx
	movq	16(%rbp), %rax
	leaq	1(%rax), %rdx
	movq	%rdx, 16(%rbp)
	movb	%cl, (%rax)
	jmp	.L325
.L326:
	movl	-4(%rbp), %eax
	movl	%eax, %eax
	imulq	$1374389535, %rax, %rax
	shrq	$32, %rax
	shrl	$5, %eax
	addl	$48, %eax
	movl	%eax, %ecx
	movq	16(%rbp), %rax
	leaq	1(%rax), %rdx
	movq	%rdx, 16(%rbp)
	movb	%cl, (%rax)
	movl	-4(%rbp), %edx
	movl	%edx, %eax
	imulq	$1374389535, %rax, %rax
	shrq	$32, %rax
	shrl	$5, %eax
	imull	$100, %eax, %eax
	subl	%eax, %edx
	movl	%edx, -4(%rbp)
	movl	-4(%rbp), %eax
	movl	%eax, %edx
	movl	$3435973837, %eax
	imulq	%rdx, %rax
	shrq	$32, %rax
	shrl	$3, %eax
	addl	$48, %eax
	movl	%eax, %ecx
	movq	16(%rbp), %rax
	leaq	1(%rax), %rdx
	movq	%rdx, 16(%rbp)
	movb	%cl, (%rax)
	movl	-4(%rbp), %ecx
	movl	%ecx, %edx
	movl	$3435973837, %eax
	imulq	%rdx, %rax
	shrq	$32, %rax
	movl	%eax, %edx
	shrl	$3, %edx
	movl	%edx, %eax
	sall	$2, %eax
	addl	%edx, %eax
	addl	%eax, %eax
	subl	%eax, %ecx
	movl	%ecx, %edx
	movl	%edx, -4(%rbp)
	movl	-4(%rbp), %eax
	addl	$48, %eax
	movl	%eax, %ecx
	movq	16(%rbp), %rax
	leaq	1(%rax), %rdx
	movq	%rdx, 16(%rbp)
	movb	%cl, (%rax)
.L325:
	movq	16(%rbp), %rax
	addq	$48, %rsp
	popq	%rbp
	ret
	.seh_endproc
	.section .rdata,"dr"
.LC35:
	.ascii "min_exp < 0\0"
.LC36:
	.ascii "max_exp > 0\0"
.LC37:
	.ascii "k > n\0"
	.section	.text$_ZN8nlohmann16json_abi_v3_12_06detail9dtoa_impl13format_bufferEPciiii,"x"
	.linkonce discard
	.globl	_ZN8nlohmann16json_abi_v3_12_06detail9dtoa_impl13format_bufferEPciiii
	.def	_ZN8nlohmann16json_abi_v3_12_06detail9dtoa_impl13format_bufferEPciiii;	.scl	2;	.type	32;	.endef
	.seh_proc	_ZN8nlohmann16json_abi_v3_12_06detail9dtoa_impl13format_bufferEPciiii
_ZN8nlohmann16json_abi_v3_12_06detail9dtoa_impl13format_bufferEPciiii:
.LFB7415:
	pushq	%rbp
	.seh_pushreg	%rbp
	movq	%rsp, %rbp
	.seh_setframe	%rbp, 0
	subq	$48, %rsp
	.seh_stackalloc	48
	.seh_endprologue
	movq	%rcx, 16(%rbp)
	movl	%edx, 24(%rbp)
	movl	%r8d, 32(%rbp)
	movl	%r9d, 40(%rbp)
	cmpl	$0, 40(%rbp)
	js	.L329
	leaq	.LC8(%rip), %rdx
	leaq	.LC35(%rip), %rax
	movl	$19056, %r8d
	movq	%rax, %rcx
	call	_assert
.L329:
	cmpl	$0, 48(%rbp)
	jg	.L330
	leaq	.LC8(%rip), %rdx
	leaq	.LC36(%rip), %rax
	movl	$19057, %r8d
	movq	%rax, %rcx
	call	_assert
.L330:
	movl	24(%rbp), %eax
	movl	%eax, -4(%rbp)
	movl	24(%rbp), %edx
	movl	32(%rbp), %eax
	addl	%edx, %eax
	movl	%eax, -8(%rbp)
	movl	-4(%rbp), %eax
	cmpl	-8(%rbp), %eax
	jg	.L331
	movl	-8(%rbp), %eax
	cmpl	48(%rbp), %eax
	jg	.L331
	movl	-8(%rbp), %eax
	movslq	%eax, %rdx
	movl	-4(%rbp), %eax
	cltq
	movq	%rdx, %rcx
	subq	%rax, %rcx
	movl	-4(%rbp), %eax
	movslq	%eax, %rdx
	movq	16(%rbp), %rax
	addq	%rdx, %rax
	movq	%rcx, %r8
	movl	$48, %edx
	movq	%rax, %rcx
	call	memset
	movl	-8(%rbp), %eax
	movslq	%eax, %rdx
	movq	16(%rbp), %rax
	addq	%rdx, %rax
	movb	$46, (%rax)
	movl	-8(%rbp), %eax
	cltq
	leaq	1(%rax), %rdx
	movq	16(%rbp), %rax
	addq	%rdx, %rax
	movb	$48, (%rax)
	movl	-8(%rbp), %eax
	cltq
	leaq	2(%rax), %rdx
	movq	16(%rbp), %rax
	addq	%rdx, %rax
	jmp	.L332
.L331:
	cmpl	$0, -8(%rbp)
	jle	.L333
	movl	-8(%rbp), %eax
	cmpl	48(%rbp), %eax
	jg	.L333
	movl	-4(%rbp), %eax
	cmpl	-8(%rbp), %eax
	jg	.L334
	leaq	.LC8(%rip), %rdx
	leaq	.LC37(%rip), %rax
	movl	$19083, %r8d
	movq	%rax, %rcx
	call	_assert
.L334:
	movl	-4(%rbp), %eax
	movslq	%eax, %rdx
	movl	-8(%rbp), %eax
	cltq
	subq	%rax, %rdx
	movq	%rdx, %r8
	movl	-8(%rbp), %eax
	movslq	%eax, %rdx
	movq	16(%rbp), %rax
	addq	%rax, %rdx
	movl	-8(%rbp), %eax
	cltq
	leaq	1(%rax), %rcx
	movq	16(%rbp), %rax
	addq	%rcx, %rax
	movq	%rax, %rcx
	call	memmove
	movl	-8(%rbp), %eax
	movslq	%eax, %rdx
	movq	16(%rbp), %rax
	addq	%rdx, %rax
	movb	$46, (%rax)
	movl	-4(%rbp), %eax
	cltq
	leaq	1(%rax), %rdx
	movq	16(%rbp), %rax
	addq	%rdx, %rax
	jmp	.L332
.L333:
	movl	40(%rbp), %eax
	cmpl	-8(%rbp), %eax
	jge	.L335
	cmpl	$0, -8(%rbp)
	jg	.L335
	movl	-4(%rbp), %eax
	movslq	%eax, %rdx
	movl	-8(%rbp), %eax
	negl	%eax
	cltq
	leaq	2(%rax), %rcx
	movq	16(%rbp), %rax
	addq	%rax, %rcx
	movq	16(%rbp), %rax
	movq	%rdx, %r8
	movq	%rax, %rdx
	call	memmove
	movq	16(%rbp), %rax
	movb	$48, (%rax)
	movq	16(%rbp), %rax
	addq	$1, %rax
	movb	$46, (%rax)
	movl	-8(%rbp), %eax
	negl	%eax
	movslq	%eax, %rdx
	movq	16(%rbp), %rax
	addq	$2, %rax
	movq	%rdx, %r8
	movl	$48, %edx
	movq	%rax, %rcx
	call	memset
	movl	-8(%rbp), %eax
	negl	%eax
	movslq	%eax, %rdx
	movl	-4(%rbp), %eax
	cltq
	addq	%rdx, %rax
	leaq	2(%rax), %rdx
	movq	16(%rbp), %rax
	addq	%rdx, %rax
	jmp	.L332
.L335:
	cmpl	$1, -4(%rbp)
	jne	.L336
	addq	$1, 16(%rbp)
	jmp	.L337
.L336:
	movl	-4(%rbp), %eax
	cltq
	leaq	-1(%rax), %rcx
	movq	16(%rbp), %rax
	leaq	1(%rax), %rdx
	movq	16(%rbp), %rax
	addq	$2, %rax
	movq	%rcx, %r8
	movq	%rax, %rcx
	call	memmove
	movq	16(%rbp), %rax
	addq	$1, %rax
	movb	$46, (%rax)
	movl	-4(%rbp), %eax
	cltq
	addq	$1, %rax
	addq	%rax, 16(%rbp)
.L337:
	movq	16(%rbp), %rax
	leaq	1(%rax), %rdx
	movq	%rdx, 16(%rbp)
	movb	$101, (%rax)
	movl	-8(%rbp), %eax
	leal	-1(%rax), %edx
	movq	16(%rbp), %rax
	movq	%rax, %rcx
	call	_ZN8nlohmann16json_abi_v3_12_06detail9dtoa_impl15append_exponentEPci
	nop
.L332:
	addq	$48, %rsp
	popq	%rbp
	ret
	.seh_endproc
	.section .rdata,"dr"
.LC38:
	.ascii "__n < this->size()\0"
	.align 8
.LC39:
	.ascii "constexpr const std::array<_Tp, _Nm>::value_type& std::array<_Tp, _Nm>::operator[](size_type) const [with _Tp = unsigned char; long long unsigned int _Nm = 400; const_reference = const unsigned char&; size_type = long long unsigned int]\0"
	.align 8
.LC40:
	.ascii "C:/msys64/ucrt64/include/c++/15.2.0/array\0"
	.section	.text$_ZNKSt5arrayIhLy400EEixEy,"x"
	.linkonce discard
	.align 2
	.globl	_ZNKSt5arrayIhLy400EEixEy
	.def	_ZNKSt5arrayIhLy400EEixEy;	.scl	2;	.type	32;	.endef
	.seh_proc	_ZNKSt5arrayIhLy400EEixEy
_ZNKSt5arrayIhLy400EEixEy:
.LFB7432:
	pushq	%rbp
	.seh_pushreg	%rbp
	movq	%rsp, %rbp
	.seh_setframe	%rbp, 0
	subq	$48, %rsp
	.seh_stackalloc	48
	.seh_endprologue
	movq	%rcx, 16(%rbp)
	movq	%rdx, 24(%rbp)
	movq	16(%rbp), %rax
	movq	%rax, -8(%rbp)
	movl	$400, %eax
	cmpq	%rax, 24(%rbp)
	setnb	%al
	movzbl	%al, %eax
	testl	%eax, %eax
	je	.L340
	leaq	.LC38(%rip), %rcx
	leaq	.LC39(%rip), %rdx
	leaq	.LC40(%rip), %rax
	movq	%rcx, %r9
	movq	%rdx, %r8
	movl	$219, %edx
	movq	%rax, %rcx
	call	_ZSt21__glibcxx_assert_failPKciS0_S0_
.L340:
	movq	16(%rbp), %rdx
	movq	24(%rbp), %rax
	addq	%rdx, %rax
	addq	$48, %rsp
	popq	%rbp
	ret
	.seh_endproc
	.section	.text$_ZNSt8functionIFbiN8nlohmann16json_abi_v3_12_06detail13parse_event_tERNS1_10basic_jsonISt3mapSt6vectorNSt7__cxx1112basic_stringIcSt11char_traitsIcESaIcEEEbxydSaNS1_14adl_serializerES6_IhSaIhEEvEEEED1Ev,"x"
	.linkonce discard
	.align 2
	.globl	_ZNSt8functionIFbiN8nlohmann16json_abi_v3_12_06detail13parse_event_tERNS1_10basic_jsonISt3mapSt6vectorNSt7__cxx1112basic_stringIcSt11char_traitsIcESaIcEEEbxydSaNS1_14adl_serializerES6_IhSaIhEEvEEEED1Ev
	.def	_ZNSt8functionIFbiN8nlohmann16json_abi_v3_12_06detail13parse_event_tERNS1_10basic_jsonISt3mapSt6vectorNSt7__cxx1112basic_stringIcSt11char_traitsIcESaIcEEEbxydSaNS1_14adl_serializerES6_IhSaIhEEvEEEED1Ev;	.scl	2;	.type	32;	.endef
	.seh_proc	_ZNSt8functionIFbiN8nlohmann16json_abi_v3_12_06detail13parse_event_tERNS1_10basic_jsonISt3mapSt6vectorNSt7__cxx1112basic_stringIcSt11char_traitsIcESaIcEEEbxydSaNS1_14adl_serializerES6_IhSaIhEEvEEEED1Ev
_ZNSt8functionIFbiN8nlohmann16json_abi_v3_12_06detail13parse_event_tERNS1_10basic_jsonISt3mapSt6vectorNSt7__cxx1112basic_stringIcSt11char_traitsIcESaIcEEEbxydSaNS1_14adl_serializerES6_IhSaIhEEvEEEED1Ev:
.LFB7798:
	pushq	%rbp
	.seh_pushreg	%rbp
	movq	%rsp, %rbp
	.seh_setframe	%rbp, 0
	subq	$32, %rsp
	.seh_stackalloc	32
	.seh_endprologue
	movq	%rcx, 16(%rbp)
	movq	16(%rbp), %rax
	movq	%rax, %rcx
	call	_ZNSt14_Function_baseD2Ev
	nop
	addq	$32, %rsp
	popq	%rbp
	ret
	.seh_endproc
	.section	.text$_ZNSt12_Vector_baseI4EdgeSaIS0_EE12_Vector_implD1Ev,"x"
	.linkonce discard
	.align 2
	.globl	_ZNSt12_Vector_baseI4EdgeSaIS0_EE12_Vector_implD1Ev
	.def	_ZNSt12_Vector_baseI4EdgeSaIS0_EE12_Vector_implD1Ev;	.scl	2;	.type	32;	.endef
	.seh_proc	_ZNSt12_Vector_baseI4EdgeSaIS0_EE12_Vector_implD1Ev
_ZNSt12_Vector_baseI4EdgeSaIS0_EE12_Vector_implD1Ev:
.LFB7812:
	pushq	%rbp
	.seh_pushreg	%rbp
	movq	%rsp, %rbp
	.seh_setframe	%rbp, 0
	subq	$48, %rsp
	.seh_stackalloc	48
	.seh_endprologue
	movq	%rcx, 16(%rbp)
	movq	16(%rbp), %rax
	movq	%rax, -8(%rbp)
	movq	-8(%rbp), %rax
	movq	%rax, %rcx
	call	_ZNSt15__new_allocatorI4EdgeED2Ev
	nop
	nop
	addq	$48, %rsp
	popq	%rbp
	ret
	.seh_endproc
	.section	.text$_ZNSt12_Vector_baseI4EdgeSaIS0_EEC2Ev,"x"
	.linkonce discard
	.align 2
	.globl	_ZNSt12_Vector_baseI4EdgeSaIS0_EEC2Ev
	.def	_ZNSt12_Vector_baseI4EdgeSaIS0_EEC2Ev;	.scl	2;	.type	32;	.endef
	.seh_proc	_ZNSt12_Vector_baseI4EdgeSaIS0_EEC2Ev
_ZNSt12_Vector_baseI4EdgeSaIS0_EEC2Ev:
.LFB7813:
	pushq	%rbp
	.seh_pushreg	%rbp
	movq	%rsp, %rbp
	.seh_setframe	%rbp, 0
	subq	$32, %rsp
	.seh_stackalloc	32
	.seh_endprologue
	movq	%rcx, 16(%rbp)
	movq	16(%rbp), %rax
	movq	%rax, %rcx
	call	_ZNSt12_Vector_baseI4EdgeSaIS0_EE12_Vector_implC1Ev
	nop
	addq	$32, %rsp
	popq	%rbp
	ret
	.seh_endproc
	.section	.text$_ZNSt6vectorI4EdgeSaIS0_EEC1Ev,"x"
	.linkonce discard
	.align 2
	.globl	_ZNSt6vectorI4EdgeSaIS0_EEC1Ev
	.def	_ZNSt6vectorI4EdgeSaIS0_EEC1Ev;	.scl	2;	.type	32;	.endef
	.seh_proc	_ZNSt6vectorI4EdgeSaIS0_EEC1Ev
_ZNSt6vectorI4EdgeSaIS0_EEC1Ev:
.LFB7816:
	pushq	%rbp
	.seh_pushreg	%rbp
	movq	%rsp, %rbp
	.seh_setframe	%rbp, 0
	subq	$32, %rsp
	.seh_stackalloc	32
	.seh_endprologue
	movq	%rcx, 16(%rbp)
	movq	16(%rbp), %rax
	movq	%rax, %rcx
	call	_ZNSt12_Vector_baseI4EdgeSaIS0_EEC2Ev
	nop
	addq	$32, %rsp
	popq	%rbp
	ret
	.seh_endproc
	.section	.text$_ZN4NodeC1EiNSt7__cxx1112basic_stringIcSt11char_traitsIcESaIcEEE,"x"
	.linkonce discard
	.align 2
	.globl	_ZN4NodeC1EiNSt7__cxx1112basic_stringIcSt11char_traitsIcESaIcEEE
	.def	_ZN4NodeC1EiNSt7__cxx1112basic_stringIcSt11char_traitsIcESaIcEEE;	.scl	2;	.type	32;	.endef
	.seh_proc	_ZN4NodeC1EiNSt7__cxx1112basic_stringIcSt11char_traitsIcESaIcEEE
_ZN4NodeC1EiNSt7__cxx1112basic_stringIcSt11char_traitsIcESaIcEEE:
.LFB7818:
	pushq	%rbp
	.seh_pushreg	%rbp
	movq	%rsp, %rbp
	.seh_setframe	%rbp, 0
	subq	$32, %rsp
	.seh_stackalloc	32
	.seh_endprologue
	movq	%rcx, 16(%rbp)
	movl	%edx, 24(%rbp)
	movq	%r8, 32(%rbp)
	movq	16(%rbp), %rax
	movl	24(%rbp), %edx
	movl	%edx, (%rax)
	movq	16(%rbp), %rax
	leaq	8(%rax), %rcx
	movq	32(%rbp), %rax
	movq	%rax, %rdx
	call	_ZNSt7__cxx1112basic_stringIcSt11char_traitsIcESaIcEEC1ERKS4_
	movq	16(%rbp), %rax
	addq	$40, %rax
	movq	%rax, %rcx
	call	_ZNSt6vectorI4EdgeSaIS0_EEC1Ev
	movq	16(%rbp), %rax
	movl	$0, 64(%rax)
	movq	16(%rbp), %rax
	pxor	%xmm0, %xmm0
	movss	%xmm0, 68(%rax)
	nop
	addq	$32, %rsp
	popq	%rbp
	ret
	.seh_endproc
	.section	.text$_ZN4EdgeD1Ev,"x"
	.linkonce discard
	.align 2
	.globl	_ZN4EdgeD1Ev
	.def	_ZN4EdgeD1Ev;	.scl	2;	.type	32;	.endef
	.seh_proc	_ZN4EdgeD1Ev
_ZN4EdgeD1Ev:
.LFB7822:
	pushq	%rbp
	.seh_pushreg	%rbp
	movq	%rsp, %rbp
	.seh_setframe	%rbp, 0
	subq	$32, %rsp
	.seh_stackalloc	32
	.seh_endprologue
	movq	%rcx, 16(%rbp)
	movq	16(%rbp), %rax
	addq	$8, %rax
	movq	%rax, %rcx
	call	_ZNSt7__cxx1112basic_stringIcSt11char_traitsIcESaIcEED1Ev
	nop
	addq	$32, %rsp
	popq	%rbp
	ret
	.seh_endproc
	.section	.text$_ZN4Node8add_edgeEiNSt7__cxx1112basic_stringIcSt11char_traitsIcESaIcEEEf,"x"
	.linkonce discard
	.align 2
	.globl	_ZN4Node8add_edgeEiNSt7__cxx1112basic_stringIcSt11char_traitsIcESaIcEEEf
	.def	_ZN4Node8add_edgeEiNSt7__cxx1112basic_stringIcSt11char_traitsIcESaIcEEEf;	.scl	2;	.type	32;	.endef
	.seh_proc	_ZN4Node8add_edgeEiNSt7__cxx1112basic_stringIcSt11char_traitsIcESaIcEEEf
_ZN4Node8add_edgeEiNSt7__cxx1112basic_stringIcSt11char_traitsIcESaIcEEEf:
.LFB7819:
	pushq	%rbp
	.seh_pushreg	%rbp
	pushq	%rsi
	.seh_pushreg	%rsi
	pushq	%rbx
	.seh_pushreg	%rbx
	subq	$80, %rsp
	.seh_stackalloc	80
	leaq	80(%rsp), %rbp
	.seh_setframe	%rbp, 80
	.seh_endprologue
	movq	%rcx, 32(%rbp)
	movl	%edx, 40(%rbp)
	movq	%r8, 48(%rbp)
	movss	%xmm3, 56(%rbp)
	movq	32(%rbp), %rax
	leaq	40(%rax), %rsi
	movl	40(%rbp), %eax
	movl	%eax, -48(%rbp)
	movq	48(%rbp), %rax
	leaq	-48(%rbp), %rdx
	leaq	8(%rdx), %rcx
	movq	%rax, %rdx
.LEHB12:
	call	_ZNSt7__cxx1112basic_stringIcSt11char_traitsIcESaIcEEC1ERKS4_
.LEHE12:
	movss	56(%rbp), %xmm0
	movss	%xmm0, -8(%rbp)
	movl	$0, %ebx
	leaq	-48(%rbp), %rax
	movq	%rax, %rdx
	movq	%rsi, %rcx
.LEHB13:
	call	_ZNSt6vectorI4EdgeSaIS0_EE9push_backEOS0_
.LEHE13:
	leaq	-48(%rbp), %rax
	movq	%rax, %rcx
	call	_ZN4EdgeD1Ev
	testb	%bl, %bl
	je	.L349
	leaq	-48(%rbp), %rax
	addq	$8, %rax
	movq	%rax, %rcx
	call	_ZNSt7__cxx1112basic_stringIcSt11char_traitsIcESaIcEED1Ev
.L349:
	movq	32(%rbp), %rax
	movl	64(%rax), %eax
	leal	1(%rax), %edx
	movq	32(%rbp), %rax
	movl	%edx, 64(%rax)
	jmp	.L353
.L352:
	movq	%rax, %rsi
	leaq	-48(%rbp), %rax
	movq	%rax, %rcx
	call	_ZN4EdgeD1Ev
	testb	%bl, %bl
	je	.L351
	leaq	-48(%rbp), %rax
	addq	$8, %rax
	movq	%rax, %rcx
	call	_ZNSt7__cxx1112basic_stringIcSt11char_traitsIcESaIcEED1Ev
.L351:
	movq	%rsi, %rax
	movq	%rax, %rcx
.LEHB14:
	call	_Unwind_Resume
	nop
.LEHE14:
.L353:
	addq	$80, %rsp
	popq	%rbx
	popq	%rsi
	popq	%rbp
	ret
	.seh_handler	__gxx_personality_seh0, @unwind, @except
	.seh_handlerdata
.LLSDA7819:
	.byte	0xff
	.byte	0xff
	.byte	0x1
	.uleb128 .LLSDACSE7819-.LLSDACSB7819
.LLSDACSB7819:
	.uleb128 .LEHB12-.LFB7819
	.uleb128 .LEHE12-.LEHB12
	.uleb128 0
	.uleb128 0
	.uleb128 .LEHB13-.LFB7819
	.uleb128 .LEHE13-.LEHB13
	.uleb128 .L352-.LFB7819
	.uleb128 0
	.uleb128 .LEHB14-.LFB7819
	.uleb128 .LEHE14-.LEHB14
	.uleb128 0
	.uleb128 0
.LLSDACSE7819:
	.section	.text$_ZN4Node8add_edgeEiNSt7__cxx1112basic_stringIcSt11char_traitsIcESaIcEEEf,"x"
	.linkonce discard
	.seh_endproc
	.section	.text$_ZNK9PathStategtERKS_,"x"
	.linkonce discard
	.align 2
	.globl	_ZNK9PathStategtERKS_
	.def	_ZNK9PathStategtERKS_;	.scl	2;	.type	32;	.endef
	.seh_proc	_ZNK9PathStategtERKS_
_ZNK9PathStategtERKS_:
.LFB7823:
	pushq	%rbp
	.seh_pushreg	%rbp
	movq	%rsp, %rbp
	.seh_setframe	%rbp, 0
	.seh_endprologue
	movq	%rcx, 16(%rbp)
	movq	%rdx, 24(%rbp)
	movq	16(%rbp), %rax
	movss	4(%rax), %xmm0
	movq	24(%rbp), %rax
	movss	4(%rax), %xmm1
	comiss	%xmm1, %xmm0
	seta	%al
	popq	%rbp
	ret
	.seh_endproc
	.section .rdata,"dr"
.LC42:
	.ascii "default\0"
	.section	.text$_ZNSt13random_deviceC1Ev,"x"
	.linkonce discard
	.align 2
	.globl	_ZNSt13random_deviceC1Ev
	.def	_ZNSt13random_deviceC1Ev;	.scl	2;	.type	32;	.endef
	.seh_proc	_ZNSt13random_deviceC1Ev
_ZNSt13random_deviceC1Ev:
.LFB8294:
	pushq	%rbp
	.seh_pushreg	%rbp
	pushq	%rbx
	.seh_pushreg	%rbx
	subq	$88, %rsp
	.seh_stackalloc	88
	leaq	80(%rsp), %rbp
	.seh_setframe	%rbp, 80
	.seh_endprologue
	movq	%rcx, 32(%rbp)
	leaq	-9(%rbp), %rax
	movq	%rax, -8(%rbp)
	nop
	nop
	leaq	-9(%rbp), %rcx
	leaq	.LC42(%rip), %rdx
	leaq	-48(%rbp), %rax
	movq	%rcx, %r8
	movq	%rax, %rcx
.LEHB15:
	call	_ZNSt7__cxx1112basic_stringIcSt11char_traitsIcESaIcEEC1IS3_EEPKcRKS3_
.LEHE15:
	leaq	-48(%rbp), %rdx
	movq	32(%rbp), %rax
	movq	%rax, %rcx
.LEHB16:
	call	_ZNSt13random_device7_M_initERKNSt7__cxx1112basic_stringIcSt11char_traitsIcESaIcEEE
.LEHE16:
	leaq	-48(%rbp), %rax
	movq	%rax, %rcx
	call	_ZNSt7__cxx1112basic_stringIcSt11char_traitsIcESaIcEED1Ev
	leaq	-9(%rbp), %rax
	movq	%rax, %rcx
	call	_ZNSt15__new_allocatorIcED2Ev
	nop
	jmp	.L361
.L360:
	movq	%rax, %rbx
	leaq	-48(%rbp), %rax
	movq	%rax, %rcx
	call	_ZNSt7__cxx1112basic_stringIcSt11char_traitsIcESaIcEED1Ev
	jmp	.L358
.L359:
	movq	%rax, %rbx
.L358:
	leaq	-9(%rbp), %rax
	movq	%rax, %rcx
	call	_ZNSt15__new_allocatorIcED2Ev
	nop
	movq	%rbx, %rax
	movq	%rax, %rcx
.LEHB17:
	call	_Unwind_Resume
	nop
.LEHE17:
.L361:
	addq	$88, %rsp
	popq	%rbx
	popq	%rbp
	ret
	.seh_handler	__gxx_personality_seh0, @unwind, @except
	.seh_handlerdata
.LLSDA8294:
	.byte	0xff
	.byte	0xff
	.byte	0x1
	.uleb128 .LLSDACSE8294-.LLSDACSB8294
.LLSDACSB8294:
	.uleb128 .LEHB15-.LFB8294
	.uleb128 .LEHE15-.LEHB15
	.uleb128 .L359-.LFB8294
	.uleb128 0
	.uleb128 .LEHB16-.LFB8294
	.uleb128 .LEHE16-.LEHB16
	.uleb128 .L360-.LFB8294
	.uleb128 0
	.uleb128 .LEHB17-.LFB8294
	.uleb128 .LEHE17-.LEHB17
	.uleb128 0
	.uleb128 0
.LLSDACSE8294:
	.section	.text$_ZNSt13random_deviceC1Ev,"x"
	.linkonce discard
	.seh_endproc
	.section	.text$_ZNSt13random_deviceD1Ev,"x"
	.linkonce discard
	.align 2
	.globl	_ZNSt13random_deviceD1Ev
	.def	_ZNSt13random_deviceD1Ev;	.scl	2;	.type	32;	.endef
	.seh_proc	_ZNSt13random_deviceD1Ev
_ZNSt13random_deviceD1Ev:
.LFB8300:
	pushq	%rbp
	.seh_pushreg	%rbp
	movq	%rsp, %rbp
	.seh_setframe	%rbp, 0
	subq	$32, %rsp
	.seh_stackalloc	32
	.seh_endprologue
	movq	%rcx, 16(%rbp)
	movq	16(%rbp), %rax
	movq	%rax, %rcx
	call	_ZNSt13random_device7_M_finiEv
	nop
	addq	$32, %rsp
	popq	%rbp
	ret
	.seh_handler	__gxx_personality_seh0, @unwind, @except
	.seh_handlerdata
.LLSDA8300:
	.byte	0xff
	.byte	0xff
	.byte	0x1
	.uleb128 .LLSDACSE8300-.LLSDACSB8300
.LLSDACSB8300:
.LLSDACSE8300:
	.section	.text$_ZNSt13random_deviceD1Ev,"x"
	.linkonce discard
	.seh_endproc
	.section	.text$_ZNSt13random_deviceclEv,"x"
	.linkonce discard
	.align 2
	.globl	_ZNSt13random_deviceclEv
	.def	_ZNSt13random_deviceclEv;	.scl	2;	.type	32;	.endef
	.seh_proc	_ZNSt13random_deviceclEv
_ZNSt13random_deviceclEv:
.LFB8304:
	pushq	%rbp
	.seh_pushreg	%rbp
	movq	%rsp, %rbp
	.seh_setframe	%rbp, 0
	subq	$32, %rsp
	.seh_stackalloc	32
	.seh_endprologue
	movq	%rcx, 16(%rbp)
	movq	16(%rbp), %rax
	movq	%rax, %rcx
	call	_ZNSt13random_device9_M_getvalEv
	addq	$32, %rsp
	popq	%rbp
	ret
	.seh_endproc
	.section	.text$_ZNSt14priority_queueI9PathStateSt6vectorIS0_SaIS0_EESt7greaterIS0_EED1Ev,"x"
	.linkonce discard
	.align 2
	.globl	_ZNSt14priority_queueI9PathStateSt6vectorIS0_SaIS0_EESt7greaterIS0_EED1Ev
	.def	_ZNSt14priority_queueI9PathStateSt6vectorIS0_SaIS0_EESt7greaterIS0_EED1Ev;	.scl	2;	.type	32;	.endef
	.seh_proc	_ZNSt14priority_queueI9PathStateSt6vectorIS0_SaIS0_EESt7greaterIS0_EED1Ev
_ZNSt14priority_queueI9PathStateSt6vectorIS0_SaIS0_EESt7greaterIS0_EED1Ev:
.LFB9394:
	pushq	%rbp
	.seh_pushreg	%rbp
	movq	%rsp, %rbp
	.seh_setframe	%rbp, 0
	subq	$32, %rsp
	.seh_stackalloc	32
	.seh_endprologue
	movq	%rcx, 16(%rbp)
	movq	16(%rbp), %rax
	movq	%rax, %rcx
	call	_ZNSt6vectorI9PathStateSaIS0_EED1Ev
	nop
	addq	$32, %rsp
	popq	%rbp
	ret
	.seh_endproc
	.section	.text$_ZN18SemanticMlfqEngineC1ERSt6vectorI4NodeSaIS1_EE,"x"
	.linkonce discard
	.align 2
	.globl	_ZN18SemanticMlfqEngineC1ERSt6vectorI4NodeSaIS1_EE
	.def	_ZN18SemanticMlfqEngineC1ERSt6vectorI4NodeSaIS1_EE;	.scl	2;	.type	32;	.endef
	.seh_proc	_ZN18SemanticMlfqEngineC1ERSt6vectorI4NodeSaIS1_EE
_ZN18SemanticMlfqEngineC1ERSt6vectorI4NodeSaIS1_EE:
.LFB9396:
	pushq	%rbp
	.seh_pushreg	%rbp
	pushq	%rsi
	.seh_pushreg	%rsi
	pushq	%rbx
	.seh_pushreg	%rbx
	subq	$32, %rsp
	.seh_stackalloc	32
	leaq	32(%rsp), %rbp
	.seh_setframe	%rbp, 32
	.seh_endprologue
	movq	%rcx, 32(%rbp)
	movq	%rdx, 40(%rbp)
	movq	32(%rbp), %rax
	movl	$2, %ebx
	movq	%rax, %rsi
	jmp	.L367
.L368:
	movq	%rsi, %rcx
	call	_ZNSt14priority_queueI9PathStateSt6vectorIS0_SaIS0_EESt7greaterIS0_EEC1IS3_vEEv
	subq	$1, %rbx
	addq	$32, %rsi
.L367:
	testq	%rbx, %rbx
	jns	.L368
	movq	32(%rbp), %rax
	movl	$2, 96(%rax)
	movq	32(%rbp), %rax
	movl	$5, 100(%rax)
	movq	32(%rbp), %rax
	pxor	%xmm0, %xmm0
	movss	%xmm0, 104(%rax)
	movq	32(%rbp), %rax
	movl	$10, 108(%rax)
	movq	32(%rbp), %rax
	movq	40(%rbp), %rdx
	movq	%rdx, 112(%rax)
	nop
	addq	$32, %rsp
	popq	%rbx
	popq	%rsi
	popq	%rbp
	ret
	.seh_endproc
	.section	.text$_ZNSt12_Vector_baseINSt7__cxx1112basic_stringIcSt11char_traitsIcESaIcEEESaIS5_EE12_Vector_implD1Ev,"x"
	.linkonce discard
	.align 2
	.globl	_ZNSt12_Vector_baseINSt7__cxx1112basic_stringIcSt11char_traitsIcESaIcEEESaIS5_EE12_Vector_implD1Ev
	.def	_ZNSt12_Vector_baseINSt7__cxx1112basic_stringIcSt11char_traitsIcESaIcEEESaIS5_EE12_Vector_implD1Ev;	.scl	2;	.type	32;	.endef
	.seh_proc	_ZNSt12_Vector_baseINSt7__cxx1112basic_stringIcSt11char_traitsIcESaIcEEESaIS5_EE12_Vector_implD1Ev
_ZNSt12_Vector_baseINSt7__cxx1112basic_stringIcSt11char_traitsIcESaIcEEESaIS5_EE12_Vector_implD1Ev:
.LFB9404:
	pushq	%rbp
	.seh_pushreg	%rbp
	movq	%rsp, %rbp
	.seh_setframe	%rbp, 0
	subq	$48, %rsp
	.seh_stackalloc	48
	.seh_endprologue
	movq	%rcx, 16(%rbp)
	movq	16(%rbp), %rax
	movq	%rax, -8(%rbp)
	movq	-8(%rbp), %rax
	movq	%rax, %rcx
	call	_ZNSt15__new_allocatorINSt7__cxx1112basic_stringIcSt11char_traitsIcESaIcEEEED2Ev
	nop
	nop
	addq	$48, %rsp
	popq	%rbp
	ret
	.seh_endproc
	.section	.text$_ZNSt12_Vector_baseINSt7__cxx1112basic_stringIcSt11char_traitsIcESaIcEEESaIS5_EEC2Ev,"x"
	.linkonce discard
	.align 2
	.globl	_ZNSt12_Vector_baseINSt7__cxx1112basic_stringIcSt11char_traitsIcESaIcEEESaIS5_EEC2Ev
	.def	_ZNSt12_Vector_baseINSt7__cxx1112basic_stringIcSt11char_traitsIcESaIcEEESaIS5_EEC2Ev;	.scl	2;	.type	32;	.endef
	.seh_proc	_ZNSt12_Vector_baseINSt7__cxx1112basic_stringIcSt11char_traitsIcESaIcEEESaIS5_EEC2Ev
_ZNSt12_Vector_baseINSt7__cxx1112basic_stringIcSt11char_traitsIcESaIcEEESaIS5_EEC2Ev:
.LFB9405:
	pushq	%rbp
	.seh_pushreg	%rbp
	movq	%rsp, %rbp
	.seh_setframe	%rbp, 0
	subq	$32, %rsp
	.seh_stackalloc	32
	.seh_endprologue
	movq	%rcx, 16(%rbp)
	movq	16(%rbp), %rax
	movq	%rax, %rcx
	call	_ZNSt12_Vector_baseINSt7__cxx1112basic_stringIcSt11char_traitsIcESaIcEEESaIS5_EE12_Vector_implC1Ev
	nop
	addq	$32, %rsp
	popq	%rbp
	ret
	.seh_endproc
	.section	.text$_ZNSt6vectorINSt7__cxx1112basic_stringIcSt11char_traitsIcESaIcEEESaIS5_EEC1Ev,"x"
	.linkonce discard
	.align 2
	.globl	_ZNSt6vectorINSt7__cxx1112basic_stringIcSt11char_traitsIcESaIcEEESaIS5_EEC1Ev
	.def	_ZNSt6vectorINSt7__cxx1112basic_stringIcSt11char_traitsIcESaIcEEESaIS5_EEC1Ev;	.scl	2;	.type	32;	.endef
	.seh_proc	_ZNSt6vectorINSt7__cxx1112basic_stringIcSt11char_traitsIcESaIcEEESaIS5_EEC1Ev
_ZNSt6vectorINSt7__cxx1112basic_stringIcSt11char_traitsIcESaIcEEESaIS5_EEC1Ev:
.LFB9408:
	pushq	%rbp
	.seh_pushreg	%rbp
	movq	%rsp, %rbp
	.seh_setframe	%rbp, 0
	subq	$32, %rsp
	.seh_stackalloc	32
	.seh_endprologue
	movq	%rcx, 16(%rbp)
	movq	16(%rbp), %rax
	movq	%rax, %rcx
	call	_ZNSt12_Vector_baseINSt7__cxx1112basic_stringIcSt11char_traitsIcESaIcEEESaIS5_EEC2Ev
	nop
	addq	$32, %rsp
	popq	%rbp
	ret
	.seh_endproc
	.section	.text$_ZN12SearchResultC1Ev,"x"
	.linkonce discard
	.align 2
	.globl	_ZN12SearchResultC1Ev
	.def	_ZN12SearchResultC1Ev;	.scl	2;	.type	32;	.endef
	.seh_proc	_ZN12SearchResultC1Ev
_ZN12SearchResultC1Ev:
.LFB9410:
	pushq	%rbp
	.seh_pushreg	%rbp
	movq	%rsp, %rbp
	.seh_setframe	%rbp, 0
	subq	$32, %rsp
	.seh_stackalloc	32
	.seh_endprologue
	movq	%rcx, 16(%rbp)
	movq	16(%rbp), %rax
	movq	%rax, %rcx
	call	_ZNSt6vectorINSt7__cxx1112basic_stringIcSt11char_traitsIcESaIcEEESaIS5_EEC1Ev
	movq	16(%rbp), %rax
	addq	$24, %rax
	movq	%rax, %rcx
	call	_ZNSt6vectorINSt7__cxx1112basic_stringIcSt11char_traitsIcESaIcEEESaIS5_EEC1Ev
	nop
	addq	$32, %rsp
	popq	%rbp
	ret
	.seh_endproc
	.section	.text$_ZN12SearchResultD1Ev,"x"
	.linkonce discard
	.align 2
	.globl	_ZN12SearchResultD1Ev
	.def	_ZN12SearchResultD1Ev;	.scl	2;	.type	32;	.endef
	.seh_proc	_ZN12SearchResultD1Ev
_ZN12SearchResultD1Ev:
.LFB9413:
	pushq	%rbp
	.seh_pushreg	%rbp
	movq	%rsp, %rbp
	.seh_setframe	%rbp, 0
	subq	$32, %rsp
	.seh_stackalloc	32
	.seh_endprologue
	movq	%rcx, 16(%rbp)
	movq	16(%rbp), %rax
	addq	$24, %rax
	movq	%rax, %rcx
	call	_ZNSt6vectorINSt7__cxx1112basic_stringIcSt11char_traitsIcESaIcEEESaIS5_EED1Ev
	movq	16(%rbp), %rax
	movq	%rax, %rcx
	call	_ZNSt6vectorINSt7__cxx1112basic_stringIcSt11char_traitsIcESaIcEEESaIS5_EED1Ev
	nop
	addq	$32, %rsp
	popq	%rbp
	ret
	.seh_endproc
	.section	.text$_ZNSt8__detail15_Hash_code_baseIiiNS_9_IdentityESt4hashIiENS_18_Mod_range_hashingENS_20_Default_ranged_hashELb0EEC2Ev,"x"
	.linkonce discard
	.align 2
	.globl	_ZNSt8__detail15_Hash_code_baseIiiNS_9_IdentityESt4hashIiENS_18_Mod_range_hashingENS_20_Default_ranged_hashELb0EEC2Ev
	.def	_ZNSt8__detail15_Hash_code_baseIiiNS_9_IdentityESt4hashIiENS_18_Mod_range_hashingENS_20_Default_ranged_hashELb0EEC2Ev;	.scl	2;	.type	32;	.endef
	.seh_proc	_ZNSt8__detail15_Hash_code_baseIiiNS_9_IdentityESt4hashIiENS_18_Mod_range_hashingENS_20_Default_ranged_hashELb0EEC2Ev
_ZNSt8__detail15_Hash_code_baseIiiNS_9_IdentityESt4hashIiENS_18_Mod_range_hashingENS_20_Default_ranged_hashELb0EEC2Ev:
.LFB9418:
	pushq	%rbp
	.seh_pushreg	%rbp
	movq	%rsp, %rbp
	.seh_setframe	%rbp, 0
	.seh_endprologue
	movq	%rcx, 16(%rbp)
	nop
	popq	%rbp
	ret
	.seh_endproc
	.section	.text$_ZNSt8__detail15_Hashtable_baseIiiNS_9_IdentityESt8equal_toIiESt4hashIiENS_18_Mod_range_hashingENS_20_Default_ranged_hashENS_17_Hashtable_traitsILb0ELb1ELb1EEEEC2Ev,"x"
	.linkonce discard
	.align 2
	.globl	_ZNSt8__detail15_Hashtable_baseIiiNS_9_IdentityESt8equal_toIiESt4hashIiENS_18_Mod_range_hashingENS_20_Default_ranged_hashENS_17_Hashtable_traitsILb0ELb1ELb1EEEEC2Ev
	.def	_ZNSt8__detail15_Hashtable_baseIiiNS_9_IdentityESt8equal_toIiESt4hashIiENS_18_Mod_range_hashingENS_20_Default_ranged_hashENS_17_Hashtable_traitsILb0ELb1ELb1EEEEC2Ev;	.scl	2;	.type	32;	.endef
	.seh_proc	_ZNSt8__detail15_Hashtable_baseIiiNS_9_IdentityESt8equal_toIiESt4hashIiENS_18_Mod_range_hashingENS_20_Default_ranged_hashENS_17_Hashtable_traitsILb0ELb1ELb1EEEEC2Ev
_ZNSt8__detail15_Hashtable_baseIiiNS_9_IdentityESt8equal_toIiESt4hashIiENS_18_Mod_range_hashingENS_20_Default_ranged_hashENS_17_Hashtable_traitsILb0ELb1ELb1EEEEC2Ev:
.LFB9420:
	pushq	%rbp
	.seh_pushreg	%rbp
	movq	%rsp, %rbp
	.seh_setframe	%rbp, 0
	subq	$32, %rsp
	.seh_stackalloc	32
	.seh_endprologue
	movq	%rcx, 16(%rbp)
	movq	16(%rbp), %rax
	movq	%rax, %rcx
	call	_ZNSt8__detail15_Hash_code_baseIiiNS_9_IdentityESt4hashIiENS_18_Mod_range_hashingENS_20_Default_ranged_hashELb0EEC2Ev
	nop
	addq	$32, %rsp
	popq	%rbp
	ret
	.seh_endproc
	.section	.text$_ZNSt8__detail21_Hashtable_ebo_helperISaINS_10_Hash_nodeIiLb0EEEELb1EED1Ev,"x"
	.linkonce discard
	.align 2
	.globl	_ZNSt8__detail21_Hashtable_ebo_helperISaINS_10_Hash_nodeIiLb0EEEELb1EED1Ev
	.def	_ZNSt8__detail21_Hashtable_ebo_helperISaINS_10_Hash_nodeIiLb0EEEELb1EED1Ev;	.scl	2;	.type	32;	.endef
	.seh_proc	_ZNSt8__detail21_Hashtable_ebo_helperISaINS_10_Hash_nodeIiLb0EEEELb1EED1Ev
_ZNSt8__detail21_Hashtable_ebo_helperISaINS_10_Hash_nodeIiLb0EEEELb1EED1Ev:
.LFB9425:
	pushq	%rbp
	.seh_pushreg	%rbp
	movq	%rsp, %rbp
	.seh_setframe	%rbp, 0
	subq	$48, %rsp
	.seh_stackalloc	48
	.seh_endprologue
	movq	%rcx, 16(%rbp)
	movq	16(%rbp), %rax
	movq	%rax, -8(%rbp)
	movq	-8(%rbp), %rax
	movq	%rax, %rcx
	call	_ZNSt15__new_allocatorINSt8__detail10_Hash_nodeIiLb0EEEED2Ev
	nop
	nop
	addq	$48, %rsp
	popq	%rbp
	ret
	.seh_endproc
	.section	.text$_ZNSt8__detail16_Hashtable_allocISaINS_10_Hash_nodeIiLb0EEEEEC2Ev,"x"
	.linkonce discard
	.align 2
	.globl	_ZNSt8__detail16_Hashtable_allocISaINS_10_Hash_nodeIiLb0EEEEEC2Ev
	.def	_ZNSt8__detail16_Hashtable_allocISaINS_10_Hash_nodeIiLb0EEEEEC2Ev;	.scl	2;	.type	32;	.endef
	.seh_proc	_ZNSt8__detail16_Hashtable_allocISaINS_10_Hash_nodeIiLb0EEEEEC2Ev
_ZNSt8__detail16_Hashtable_allocISaINS_10_Hash_nodeIiLb0EEEEEC2Ev:
.LFB9426:
	pushq	%rbp
	.seh_pushreg	%rbp
	movq	%rsp, %rbp
	.seh_setframe	%rbp, 0
	subq	$16, %rsp
	.seh_stackalloc	16
	.seh_endprologue
	movq	%rcx, 16(%rbp)
	movq	16(%rbp), %rax
	movq	%rax, -8(%rbp)
	movq	-8(%rbp), %rax
	movq	%rax, -16(%rbp)
	nop
	nop
	nop
	addq	$16, %rsp
	popq	%rbp
	ret
	.seh_endproc
	.section	.text$_ZNSt8__detail16_Hashtable_allocISaINS_10_Hash_nodeIiLb0EEEEED2Ev,"x"
	.linkonce discard
	.align 2
	.globl	_ZNSt8__detail16_Hashtable_allocISaINS_10_Hash_nodeIiLb0EEEEED2Ev
	.def	_ZNSt8__detail16_Hashtable_allocISaINS_10_Hash_nodeIiLb0EEEEED2Ev;	.scl	2;	.type	32;	.endef
	.seh_proc	_ZNSt8__detail16_Hashtable_allocISaINS_10_Hash_nodeIiLb0EEEEED2Ev
_ZNSt8__detail16_Hashtable_allocISaINS_10_Hash_nodeIiLb0EEEEED2Ev:
.LFB9429:
	pushq	%rbp
	.seh_pushreg	%rbp
	movq	%rsp, %rbp
	.seh_setframe	%rbp, 0
	subq	$32, %rsp
	.seh_stackalloc	32
	.seh_endprologue
	movq	%rcx, 16(%rbp)
	movq	16(%rbp), %rax
	movq	%rax, %rcx
	call	_ZNSt8__detail21_Hashtable_ebo_helperISaINS_10_Hash_nodeIiLb0EEEELb1EED1Ev
	nop
	addq	$32, %rsp
	popq	%rbp
	ret
	.seh_endproc
	.section	.text$_ZNSt10_HashtableIiiSaIiENSt8__detail9_IdentityESt8equal_toIiESt4hashIiENS1_18_Mod_range_hashingENS1_20_Default_ranged_hashENS1_20_Prime_rehash_policyENS1_17_Hashtable_traitsILb0ELb1ELb1EEEEC1Ev,"x"
	.linkonce discard
	.align 2
	.globl	_ZNSt10_HashtableIiiSaIiENSt8__detail9_IdentityESt8equal_toIiESt4hashIiENS1_18_Mod_range_hashingENS1_20_Default_ranged_hashENS1_20_Prime_rehash_policyENS1_17_Hashtable_traitsILb0ELb1ELb1EEEEC1Ev
	.def	_ZNSt10_HashtableIiiSaIiENSt8__detail9_IdentityESt8equal_toIiESt4hashIiENS1_18_Mod_range_hashingENS1_20_Default_ranged_hashENS1_20_Prime_rehash_policyENS1_17_Hashtable_traitsILb0ELb1ELb1EEEEC1Ev;	.scl	2;	.type	32;	.endef
	.seh_proc	_ZNSt10_HashtableIiiSaIiENSt8__detail9_IdentityESt8equal_toIiESt4hashIiENS1_18_Mod_range_hashingENS1_20_Default_ranged_hashENS1_20_Prime_rehash_policyENS1_17_Hashtable_traitsILb0ELb1ELb1EEEEC1Ev
_ZNSt10_HashtableIiiSaIiENSt8__detail9_IdentityESt8equal_toIiESt4hashIiENS1_18_Mod_range_hashingENS1_20_Default_ranged_hashENS1_20_Prime_rehash_policyENS1_17_Hashtable_traitsILb0ELb1ELb1EEEEC1Ev:
.LFB9432:
	pushq	%rbp
	.seh_pushreg	%rbp
	movq	%rsp, %rbp
	.seh_setframe	%rbp, 0
	subq	$32, %rsp
	.seh_stackalloc	32
	.seh_endprologue
	movq	%rcx, 16(%rbp)
	movq	16(%rbp), %rax
	movq	%rax, %rcx
	call	_ZNSt8__detail15_Hashtable_baseIiiNS_9_IdentityESt8equal_toIiESt4hashIiENS_18_Mod_range_hashingENS_20_Default_ranged_hashENS_17_Hashtable_traitsILb0ELb1ELb1EEEEC2Ev
	movq	16(%rbp), %rax
	movq	%rax, %rcx
	call	_ZNSt8__detail16_Hashtable_allocISaINS_10_Hash_nodeIiLb0EEEEEC2Ev
	movq	16(%rbp), %rax
	leaq	48(%rax), %rdx
	movq	16(%rbp), %rax
	movq	%rdx, (%rax)
	movq	16(%rbp), %rax
	movq	$1, 8(%rax)
	movq	16(%rbp), %rax
	addq	$16, %rax
	movq	%rax, %rcx
	call	_ZNSt8__detail15_Hash_node_baseC1Ev
	movq	16(%rbp), %rax
	movq	$0, 24(%rax)
	movq	16(%rbp), %rax
	addq	$32, %rax
	movss	.LC43(%rip), %xmm1
	movq	%rax, %rcx
	call	_ZNSt8__detail20_Prime_rehash_policyC1Ef
	movq	16(%rbp), %rax
	movq	$0, 48(%rax)
	nop
	addq	$32, %rsp
	popq	%rbp
	ret
	.seh_endproc
	.section	.text$_ZNSt13unordered_setIiSt4hashIiESt8equal_toIiESaIiEEC1Ev,"x"
	.linkonce discard
	.align 2
	.globl	_ZNSt13unordered_setIiSt4hashIiESt8equal_toIiESaIiEEC1Ev
	.def	_ZNSt13unordered_setIiSt4hashIiESt8equal_toIiESaIiEEC1Ev;	.scl	2;	.type	32;	.endef
	.seh_proc	_ZNSt13unordered_setIiSt4hashIiESt8equal_toIiESaIiEEC1Ev
_ZNSt13unordered_setIiSt4hashIiESt8equal_toIiESaIiEEC1Ev:
.LFB9434:
	pushq	%rbp
	.seh_pushreg	%rbp
	movq	%rsp, %rbp
	.seh_setframe	%rbp, 0
	subq	$32, %rsp
	.seh_stackalloc	32
	.seh_endprologue
	movq	%rcx, 16(%rbp)
	movq	16(%rbp), %rax
	movq	%rax, %rcx
	call	_ZNSt10_HashtableIiiSaIiENSt8__detail9_IdentityESt8equal_toIiESt4hashIiENS1_18_Mod_range_hashingENS1_20_Default_ranged_hashENS1_20_Prime_rehash_policyENS1_17_Hashtable_traitsILb0ELb1ELb1EEEEC1Ev
	nop
	addq	$32, %rsp
	popq	%rbp
	ret
	.seh_endproc
	.section	.text$_ZNSt13unordered_setIiSt4hashIiESt8equal_toIiESaIiEED1Ev,"x"
	.linkonce discard
	.align 2
	.globl	_ZNSt13unordered_setIiSt4hashIiESt8equal_toIiESaIiEED1Ev
	.def	_ZNSt13unordered_setIiSt4hashIiESt8equal_toIiESaIiEED1Ev;	.scl	2;	.type	32;	.endef
	.seh_proc	_ZNSt13unordered_setIiSt4hashIiESt8equal_toIiESaIiEED1Ev
_ZNSt13unordered_setIiSt4hashIiESt8equal_toIiESaIiEED1Ev:
.LFB9437:
	pushq	%rbp
	.seh_pushreg	%rbp
	movq	%rsp, %rbp
	.seh_setframe	%rbp, 0
	subq	$32, %rsp
	.seh_stackalloc	32
	.seh_endprologue
	movq	%rcx, 16(%rbp)
	movq	16(%rbp), %rax
	movq	%rax, %rcx
	call	_ZNSt10_HashtableIiiSaIiENSt8__detail9_IdentityESt8equal_toIiESt4hashIiENS1_18_Mod_range_hashingENS1_20_Default_ranged_hashENS1_20_Prime_rehash_policyENS1_17_Hashtable_traitsILb0ELb1ELb1EEEED1Ev
	nop
	addq	$32, %rsp
	popq	%rbp
	ret
	.seh_endproc
	.section	.text$_ZN9PathStateD1Ev,"x"
	.linkonce discard
	.align 2
	.globl	_ZN9PathStateD1Ev
	.def	_ZN9PathStateD1Ev;	.scl	2;	.type	32;	.endef
	.seh_proc	_ZN9PathStateD1Ev
_ZN9PathStateD1Ev:
.LFB9440:
	pushq	%rbp
	.seh_pushreg	%rbp
	movq	%rsp, %rbp
	.seh_setframe	%rbp, 0
	subq	$32, %rsp
	.seh_stackalloc	32
	.seh_endprologue
	movq	%rcx, 16(%rbp)
	movq	16(%rbp), %rax
	addq	$16, %rax
	movq	%rax, %rcx
	call	_ZNSt7__cxx1112basic_stringIcSt11char_traitsIcESaIcEED1Ev
	nop
	addq	$32, %rsp
	popq	%rbp
	ret
	.seh_endproc
	.section	.text$_ZN9PathStateC1ERKS_,"x"
	.linkonce discard
	.align 2
	.globl	_ZN9PathStateC1ERKS_
	.def	_ZN9PathStateC1ERKS_;	.scl	2;	.type	32;	.endef
	.seh_proc	_ZN9PathStateC1ERKS_
_ZN9PathStateC1ERKS_:
.LFB9443:
	pushq	%rbp
	.seh_pushreg	%rbp
	movq	%rsp, %rbp
	.seh_setframe	%rbp, 0
	subq	$32, %rsp
	.seh_stackalloc	32
	.seh_endprologue
	movq	%rcx, 16(%rbp)
	movq	%rdx, 24(%rbp)
	movq	24(%rbp), %rax
	movl	(%rax), %edx
	movq	16(%rbp), %rax
	movl	%edx, (%rax)
	movq	24(%rbp), %rax
	movss	4(%rax), %xmm0
	movq	16(%rbp), %rax
	movss	%xmm0, 4(%rax)
	movq	24(%rbp), %rax
	movl	8(%rax), %edx
	movq	16(%rbp), %rax
	movl	%edx, 8(%rax)
	movq	16(%rbp), %rax
	addq	$16, %rax
	movq	24(%rbp), %rdx
	addq	$16, %rdx
	movq	%rax, %rcx
	call	_ZNSt7__cxx1112basic_stringIcSt11char_traitsIcESaIcEEC1ERKS4_
	nop
	addq	$32, %rsp
	popq	%rbp
	ret
	.seh_endproc
	.section .rdata,"dr"
.LC44:
	.ascii "[\354\213\234\354\236\221] S-MLFQ \355\203\220\354\203\211\0"
.LC45:
	.ascii "[\354\210\230\354\247\221] \0"
	.section	.text$_ZN18SemanticMlfqEngine6SearchEii,"x"
	.linkonce discard
	.align 2
	.globl	_ZN18SemanticMlfqEngine6SearchEii
	.def	_ZN18SemanticMlfqEngine6SearchEii;	.scl	2;	.type	32;	.endef
	.seh_proc	_ZN18SemanticMlfqEngine6SearchEii
_ZN18SemanticMlfqEngine6SearchEii:
.LFB9397:
	pushq	%rbp
	.seh_pushreg	%rbp
	pushq	%rbx
	.seh_pushreg	%rbx
	subq	$520, %rsp
	.seh_stackalloc	520
	leaq	128(%rsp), %rbp
	.seh_setframe	%rbp, 128
	.seh_endprologue
	movq	%rcx, 416(%rbp)
	movq	%rdx, 424(%rbp)
	movl	%r8d, 432(%rbp)
	movl	%r9d, 440(%rbp)
	movq	416(%rbp), %rax
	movq	%rax, %rcx
	call	_ZN12SearchResultC1Ev
	leaq	16(%rbp), %rax
	movq	%rax, %rcx
	call	_ZNSt13unordered_setIiSt4hashIiESt8equal_toIiESaIiEEC1Ev
	movl	$0, 380(%rbp)
	movq	424(%rbp), %rax
	movq	112(%rax), %rax
	movl	432(%rbp), %edx
	movslq	%edx, %rdx
	movq	%rax, %rcx
	call	_ZNSt6vectorI4NodeSaIS0_EEixEy
	leaq	8(%rax), %rdx
	leaq	-16(%rbp), %rax
	movq	%rax, %rcx
.LEHB18:
	call	_ZNSt7__cxx1112basic_stringIcSt11char_traitsIcESaIcEEC1ERKS4_
.LEHE18:
	movq	424(%rbp), %rbx
	pxor	%xmm0, %xmm0
	movups	%xmm0, 80(%rbp)
	movups	%xmm0, 96(%rbp)
	movups	%xmm0, 112(%rbp)
	movl	432(%rbp), %eax
	movl	%eax, 80(%rbp)
	leaq	-16(%rbp), %rax
	leaq	80(%rbp), %rdx
	leaq	16(%rdx), %rcx
	movq	%rax, %rdx
.LEHB19:
	call	_ZNSt7__cxx1112basic_stringIcSt11char_traitsIcESaIcEEC1ERKS4_
.LEHE19:
	leaq	80(%rbp), %rax
	movq	%rax, %rdx
	movq	%rbx, %rcx
.LEHB20:
	call	_ZNSt14priority_queueI9PathStateSt6vectorIS0_SaIS0_EESt7greaterIS0_EE4pushEOS0_
.LEHE20:
	leaq	80(%rbp), %rax
	movq	%rax, %rcx
	call	_ZN9PathStateD1Ev
	movq	416(%rbp), %rax
	leaq	24(%rax), %rbx
	leaq	175(%rbp), %rax
	movq	%rax, 344(%rbp)
	nop
	nop
	leaq	175(%rbp), %rcx
	leaq	.LC44(%rip), %rdx
	leaq	128(%rbp), %rax
	movq	%rcx, %r8
	movq	%rax, %rcx
.LEHB21:
	call	_ZNSt7__cxx1112basic_stringIcSt11char_traitsIcESaIcEEC1IS3_EEPKcRKS3_
.LEHE21:
	leaq	128(%rbp), %rax
	movq	%rax, %rdx
	movq	%rbx, %rcx
.LEHB22:
	call	_ZNSt6vectorINSt7__cxx1112basic_stringIcSt11char_traitsIcESaIcEEESaIS5_EE9push_backEOS5_
.LEHE22:
	leaq	128(%rbp), %rax
	movq	%rax, %rcx
	call	_ZNSt7__cxx1112basic_stringIcSt11char_traitsIcESaIcEED1Ev
	leaq	175(%rbp), %rax
	movq	%rax, %rcx
	call	_ZNSt15__new_allocatorIcED2Ev
	nop
	jmp	.L385
.L404:
	addl	$1, 380(%rbp)
	movq	424(%rbp), %rax
	movl	108(%rax), %ebx
	movl	380(%rbp), %eax
	cltd
	idivl	%ebx
	movl	%edx, %ecx
	movl	%ecx, %eax
	testl	%eax, %eax
	jne	.L386
	movq	416(%rbp), %rax
	leaq	24(%rax), %rdx
	movq	424(%rbp), %rax
	movq	%rax, %rcx
.LEHB23:
	call	_ZN18SemanticMlfqEngine10ApplyAgingERSt6vectorINSt7__cxx1112basic_stringIcSt11char_traitsIcESaIcEEESaIS6_EE
.L386:
	movq	424(%rbp), %rax
	movq	%rax, %rcx
	call	_ZN18SemanticMlfqEngine28GetHighestPriorityQueueIndexEv
	movl	%eax, 368(%rbp)
	movl	368(%rbp), %eax
	cltq
	salq	$5, %rax
	movq	%rax, %rdx
	movq	424(%rbp), %rax
	addq	%rdx, %rax
	movq	%rax, %rcx
	call	_ZNKSt14priority_queueI9PathStateSt6vectorIS0_SaIS0_EESt7greaterIS0_EE3topEv
	movq	%rax, %rdx
	leaq	-96(%rbp), %rax
	movq	%rax, %rcx
	call	_ZN9PathStateC1ERKS_
.LEHE23:
	movl	368(%rbp), %eax
	cltq
	salq	$5, %rax
	movq	%rax, %rdx
	movq	424(%rbp), %rax
	addq	%rdx, %rax
	movq	%rax, %rcx
.LEHB24:
	call	_ZNSt14priority_queueI9PathStateSt6vectorIS0_SaIS0_EESt7greaterIS0_EE3popEv
	leaq	16(%rbp), %rax
	movq	%rax, %rcx
	call	_ZNSt13unordered_setIiSt4hashIiESt8equal_toIiESaIiEE3endEv
	movq	%rax, 176(%rbp)
	leaq	-96(%rbp), %rdx
	leaq	16(%rbp), %rax
	movq	%rax, %rcx
	call	_ZNSt13unordered_setIiSt4hashIiESt8equal_toIiESaIiEE4findERKi
	movq	%rax, 184(%rbp)
	leaq	176(%rbp), %rdx
	leaq	184(%rbp), %rax
	movq	%rax, %rcx
	call	_ZNSt8__detailneERKNS_14_Node_iteratorIiLb1ELb0EEES3_
	testb	%al, %al
	je	.L387
	movl	$0, %ebx
	jmp	.L388
.L387:
	leaq	192(%rbp), %rax
	leaq	-96(%rbp), %rcx
	leaq	16(%rbp), %rdx
	movq	%rcx, %r8
	movq	%rax, %rcx
	call	_ZNSt13unordered_setIiSt4hashIiESt8equal_toIiESaIiEE6insertERKi
	movq	416(%rbp), %rbx
	movq	424(%rbp), %rax
	movq	112(%rax), %rax
	movl	-96(%rbp), %edx
	movslq	%edx, %rdx
	movq	%rax, %rcx
	call	_ZNSt6vectorI4NodeSaIS0_EEixEy
	addq	$8, %rax
	movq	%rax, %rdx
	movq	%rbx, %rcx
	call	_ZNSt6vectorINSt7__cxx1112basic_stringIcSt11char_traitsIcESaIcEEESaIS5_EE9push_backERKS5_
	subl	$1, 440(%rbp)
	movq	416(%rbp), %rax
	leaq	24(%rax), %rbx
	movq	424(%rbp), %rax
	movq	112(%rax), %rax
	movl	-96(%rbp), %edx
	movslq	%edx, %rdx
	movq	%rax, %rcx
	call	_ZNSt6vectorI4NodeSaIS0_EEixEy
	leaq	8(%rax), %rcx
	leaq	208(%rbp), %rax
	leaq	.LC45(%rip), %rdx
	movq	%rcx, %r8
	movq	%rax, %rcx
	call	_ZStplIcSt11char_traitsIcESaIcEENSt7__cxx1112basic_stringIT_T0_T1_EEPKS5_RKS8_
.LEHE24:
	leaq	208(%rbp), %rax
	movq	%rax, %rdx
	movq	%rbx, %rcx
.LEHB25:
	call	_ZNSt6vectorINSt7__cxx1112basic_stringIcSt11char_traitsIcESaIcEEESaIS5_EE9push_backEOS5_
.LEHE25:
	leaq	208(%rbp), %rax
	movq	%rax, %rcx
	call	_ZNSt7__cxx1112basic_stringIcSt11char_traitsIcESaIcEED1Ev
	movq	424(%rbp), %rax
	movq	112(%rax), %rax
	movl	-96(%rbp), %edx
	movslq	%edx, %rdx
	movq	%rax, %rcx
	call	_ZNSt6vectorI4NodeSaIS0_EEixEy
	addq	$40, %rax
	movq	%rax, 360(%rbp)
	movq	360(%rbp), %rax
	movq	%rax, %rcx
	call	_ZNSt6vectorI4EdgeSaIS0_EE5beginEv
	movq	%rax, -24(%rbp)
	movq	360(%rbp), %rax
	movq	%rax, %rcx
	call	_ZNSt6vectorI4EdgeSaIS0_EE3endEv
	movq	%rax, -32(%rbp)
	jmp	.L389
.L400:
	movq	-24(%rbp), %rax
	movq	%rax, 352(%rbp)
	movq	352(%rbp), %rax
	movl	(%rax), %eax
	movl	%eax, -36(%rbp)
	leaq	16(%rbp), %rax
	movq	%rax, %rcx
	call	_ZNSt13unordered_setIiSt4hashIiESt8equal_toIiESaIiEE3endEv
	movq	%rax, 240(%rbp)
	leaq	-36(%rbp), %rdx
	leaq	16(%rbp), %rax
	movq	%rax, %rcx
.LEHB26:
	call	_ZNSt13unordered_setIiSt4hashIiESt8equal_toIiESaIiEE4findERKi
.LEHE26:
	movq	%rax, 248(%rbp)
	leaq	240(%rbp), %rdx
	leaq	248(%rbp), %rax
	movq	%rax, %rcx
	call	_ZNSt8__detailneERKNS_14_Node_iteratorIiLb1ELb0EEES3_
	testb	%al, %al
	jne	.L425
	movl	-88(%rbp), %eax
	addl	$1, %eax
	movl	%eax, 376(%rbp)
	movl	368(%rbp), %eax
	movl	%eax, 372(%rbp)
	movq	424(%rbp), %rax
	movq	112(%rax), %rax
	movl	-36(%rbp), %edx
	movslq	%edx, %rdx
	movq	%rax, %rcx
	call	_ZNSt6vectorI4NodeSaIS0_EEixEy
	movl	64(%rax), %edx
	movq	424(%rbp), %rax
	movl	100(%rax), %eax
	cmpl	%eax, %edx
	setg	%al
	testb	%al, %al
	je	.L393
	movl	$2, 372(%rbp)
	movl	$0, 376(%rbp)
	jmp	.L394
.L393:
	cmpl	$0, 368(%rbp)
	jne	.L394
	movq	424(%rbp), %rax
	movl	96(%rax), %eax
	cmpl	%eax, 376(%rbp)
	jl	.L394
	movl	$1, 372(%rbp)
	movl	$0, 376(%rbp)
.L394:
	movl	372(%rbp), %eax
	cltq
	salq	$5, %rax
	movq	%rax, %rdx
	movq	424(%rbp), %rax
	leaq	(%rdx,%rax), %rbx
	movl	-36(%rbp), %eax
	movl	%eax, 256(%rbp)
	movss	-92(%rbp), %xmm1
	movq	352(%rbp), %rax
	movss	40(%rax), %xmm0
	addss	%xmm1, %xmm0
	movss	%xmm0, 260(%rbp)
	movl	376(%rbp), %eax
	movl	%eax, 264(%rbp)
	leaq	319(%rbp), %rax
	movq	%rax, 336(%rbp)
	nop
	nop
	leaq	319(%rbp), %rcx
	leaq	.LC5(%rip), %rdx
	leaq	256(%rbp), %rax
	addq	$16, %rax
	movq	%rcx, %r8
	movq	%rax, %rcx
.LEHB27:
	call	_ZNSt7__cxx1112basic_stringIcSt11char_traitsIcESaIcEEC1IS3_EEPKcRKS3_
.LEHE27:
	leaq	256(%rbp), %rax
	movq	%rax, %rdx
	movq	%rbx, %rcx
.LEHB28:
	call	_ZNSt14priority_queueI9PathStateSt6vectorIS0_SaIS0_EESt7greaterIS0_EE4pushEOS0_
.LEHE28:
	leaq	256(%rbp), %rax
	movq	%rax, %rcx
	call	_ZN9PathStateD1Ev
	leaq	319(%rbp), %rax
	movq	%rax, %rcx
	call	_ZNSt15__new_allocatorIcED2Ev
	jmp	.L395
.L425:
	nop
.L395:
	movq	-24(%rbp), %rax
	addq	$48, %rax
	movq	%rax, -24(%rbp)
	nop
.L389:
	leaq	-24(%rbp), %rax
	movq	%rax, 328(%rbp)
	movq	328(%rbp), %rax
	movq	(%rax), %rdx
	leaq	-32(%rbp), %rax
	movq	%rax, 320(%rbp)
	movq	320(%rbp), %rax
	movq	(%rax), %rax
	cmpq	%rax, %rdx
	setne	%al
	testb	%al, %al
	jne	.L400
	movl	$1, %ebx
.L388:
	leaq	-96(%rbp), %rax
	movq	%rax, %rcx
	call	_ZN9PathStateD1Ev
	cmpl	$1, %ebx
	jne	.L385
	nop
.L385:
	movq	424(%rbp), %rax
	movq	%rax, %rcx
.LEHB29:
	call	_ZN18SemanticMlfqEngine11HasElementsEv
.LEHE29:
	testb	%al, %al
	je	.L402
	cmpl	$0, 440(%rbp)
	jle	.L402
	movl	$1, %eax
	jmp	.L403
.L402:
	movl	$0, %eax
.L403:
	testb	%al, %al
	jne	.L404
	leaq	-16(%rbp), %rax
	movq	%rax, %rcx
	call	_ZNSt7__cxx1112basic_stringIcSt11char_traitsIcESaIcEED1Ev
	leaq	16(%rbp), %rax
	movq	%rax, %rcx
	call	_ZNSt13unordered_setIiSt4hashIiESt8equal_toIiESaIiEED1Ev
	jmp	.L424
.L416:
	movq	%rax, %rbx
	leaq	80(%rbp), %rax
	movq	%rax, %rcx
	call	_ZN9PathStateD1Ev
	jmp	.L407
.L419:
	movq	%rax, %rbx
	leaq	128(%rbp), %rax
	movq	%rax, %rcx
	call	_ZNSt7__cxx1112basic_stringIcSt11char_traitsIcESaIcEED1Ev
	jmp	.L409
.L418:
	movq	%rax, %rbx
.L409:
	leaq	175(%rbp), %rax
	movq	%rax, %rcx
	call	_ZNSt15__new_allocatorIcED2Ev
	nop
	jmp	.L407
.L421:
	movq	%rax, %rbx
	leaq	208(%rbp), %rax
	movq	%rax, %rcx
	call	_ZNSt7__cxx1112basic_stringIcSt11char_traitsIcESaIcEED1Ev
	jmp	.L411
.L423:
	movq	%rax, %rbx
	leaq	256(%rbp), %rax
	movq	%rax, %rcx
	call	_ZN9PathStateD1Ev
	jmp	.L413
.L422:
	movq	%rax, %rbx
.L413:
	leaq	319(%rbp), %rax
	movq	%rax, %rcx
	call	_ZNSt15__new_allocatorIcED2Ev
	nop
	jmp	.L411
.L420:
	movq	%rax, %rbx
.L411:
	leaq	-96(%rbp), %rax
	movq	%rax, %rcx
	call	_ZN9PathStateD1Ev
	jmp	.L407
.L417:
	movq	%rax, %rbx
.L407:
	leaq	-16(%rbp), %rax
	movq	%rax, %rcx
	call	_ZNSt7__cxx1112basic_stringIcSt11char_traitsIcESaIcEED1Ev
	jmp	.L414
.L415:
	movq	%rax, %rbx
.L414:
	leaq	16(%rbp), %rax
	movq	%rax, %rcx
	call	_ZNSt13unordered_setIiSt4hashIiESt8equal_toIiESaIiEED1Ev
	movq	416(%rbp), %rax
	movq	%rax, %rcx
	call	_ZN12SearchResultD1Ev
	movq	%rbx, %rax
	movq	%rax, %rcx
.LEHB30:
	call	_Unwind_Resume
.LEHE30:
.L424:
	movq	416(%rbp), %rax
	addq	$520, %rsp
	popq	%rbx
	popq	%rbp
	ret
	.seh_handler	__gxx_personality_seh0, @unwind, @except
	.seh_handlerdata
.LLSDA9397:
	.byte	0xff
	.byte	0xff
	.byte	0x1
	.uleb128 .LLSDACSE9397-.LLSDACSB9397
.LLSDACSB9397:
	.uleb128 .LEHB18-.LFB9397
	.uleb128 .LEHE18-.LEHB18
	.uleb128 .L415-.LFB9397
	.uleb128 0
	.uleb128 .LEHB19-.LFB9397
	.uleb128 .LEHE19-.LEHB19
	.uleb128 .L417-.LFB9397
	.uleb128 0
	.uleb128 .LEHB20-.LFB9397
	.uleb128 .LEHE20-.LEHB20
	.uleb128 .L416-.LFB9397
	.uleb128 0
	.uleb128 .LEHB21-.LFB9397
	.uleb128 .LEHE21-.LEHB21
	.uleb128 .L418-.LFB9397
	.uleb128 0
	.uleb128 .LEHB22-.LFB9397
	.uleb128 .LEHE22-.LEHB22
	.uleb128 .L419-.LFB9397
	.uleb128 0
	.uleb128 .LEHB23-.LFB9397
	.uleb128 .LEHE23-.LEHB23
	.uleb128 .L417-.LFB9397
	.uleb128 0
	.uleb128 .LEHB24-.LFB9397
	.uleb128 .LEHE24-.LEHB24
	.uleb128 .L420-.LFB9397
	.uleb128 0
	.uleb128 .LEHB25-.LFB9397
	.uleb128 .LEHE25-.LEHB25
	.uleb128 .L421-.LFB9397
	.uleb128 0
	.uleb128 .LEHB26-.LFB9397
	.uleb128 .LEHE26-.LEHB26
	.uleb128 .L420-.LFB9397
	.uleb128 0
	.uleb128 .LEHB27-.LFB9397
	.uleb128 .LEHE27-.LEHB27
	.uleb128 .L422-.LFB9397
	.uleb128 0
	.uleb128 .LEHB28-.LFB9397
	.uleb128 .LEHE28-.LEHB28
	.uleb128 .L423-.LFB9397
	.uleb128 0
	.uleb128 .LEHB29-.LFB9397
	.uleb128 .LEHE29-.LEHB29
	.uleb128 .L417-.LFB9397
	.uleb128 0
	.uleb128 .LEHB30-.LFB9397
	.uleb128 .LEHE30-.LEHB30
	.uleb128 0
	.uleb128 0
.LLSDACSE9397:
	.section	.text$_ZN18SemanticMlfqEngine6SearchEii,"x"
	.linkonce discard
	.seh_endproc
	.section .rdata,"dr"
	.align 8
.LC46:
	.ascii "[\354\213\234\354\236\221] \353\213\244\354\235\265\354\212\244\355\212\270\353\235\274(SJF) \355\203\220\354\203\211\0"
	.section	.text$_ZN18SemanticMlfqEngine14SearchDijkstraEii,"x"
	.linkonce discard
	.align 2
	.globl	_ZN18SemanticMlfqEngine14SearchDijkstraEii
	.def	_ZN18SemanticMlfqEngine14SearchDijkstraEii;	.scl	2;	.type	32;	.endef
	.seh_proc	_ZN18SemanticMlfqEngine14SearchDijkstraEii
_ZN18SemanticMlfqEngine14SearchDijkstraEii:
.LFB9457:
	pushq	%rbp
	.seh_pushreg	%rbp
	pushq	%rbx
	.seh_pushreg	%rbx
	subq	$504, %rsp
	.seh_stackalloc	504
	leaq	128(%rsp), %rbp
	.seh_setframe	%rbp, 128
	.seh_endprologue
	movq	%rcx, 400(%rbp)
	movq	%rdx, 408(%rbp)
	movl	%r8d, 416(%rbp)
	movl	%r9d, 424(%rbp)
	movq	400(%rbp), %rax
	movq	%rax, %rcx
	call	_ZN12SearchResultC1Ev
	movq	%rbp, %rax
	movq	%rax, %rcx
	call	_ZNSt13unordered_setIiSt4hashIiESt8equal_toIiESaIiEEC1Ev
	leaq	-32(%rbp), %rax
	movq	%rax, %rcx
	call	_ZNSt14priority_queueI9PathStateSt6vectorIS0_SaIS0_EESt7greaterIS0_EEC1IS3_vEEv
	pxor	%xmm0, %xmm0
	movups	%xmm0, 64(%rbp)
	movups	%xmm0, 80(%rbp)
	movups	%xmm0, 96(%rbp)
	movl	416(%rbp), %eax
	movl	%eax, 64(%rbp)
	leaq	127(%rbp), %rax
	movq	%rax, 344(%rbp)
	nop
	nop
	leaq	127(%rbp), %rcx
	leaq	.LC5(%rip), %rdx
	leaq	64(%rbp), %rax
	addq	$16, %rax
	movq	%rcx, %r8
	movq	%rax, %rcx
.LEHB31:
	call	_ZNSt7__cxx1112basic_stringIcSt11char_traitsIcESaIcEEC1IS3_EEPKcRKS3_
.LEHE31:
	leaq	64(%rbp), %rdx
	leaq	-32(%rbp), %rax
	movq	%rax, %rcx
.LEHB32:
	call	_ZNSt14priority_queueI9PathStateSt6vectorIS0_SaIS0_EESt7greaterIS0_EE4pushEOS0_
.LEHE32:
	leaq	64(%rbp), %rax
	movq	%rax, %rcx
	call	_ZN9PathStateD1Ev
	leaq	127(%rbp), %rax
	movq	%rax, %rcx
	call	_ZNSt15__new_allocatorIcED2Ev
	nop
	movq	400(%rbp), %rax
	leaq	24(%rax), %rbx
	leaq	175(%rbp), %rax
	movq	%rax, 336(%rbp)
	nop
	nop
	leaq	175(%rbp), %rcx
	leaq	.LC46(%rip), %rdx
	leaq	128(%rbp), %rax
	movq	%rcx, %r8
	movq	%rax, %rcx
.LEHB33:
	call	_ZNSt7__cxx1112basic_stringIcSt11char_traitsIcESaIcEEC1IS3_EEPKcRKS3_
.LEHE33:
	leaq	128(%rbp), %rax
	movq	%rax, %rdx
	movq	%rbx, %rcx
.LEHB34:
	call	_ZNSt6vectorINSt7__cxx1112basic_stringIcSt11char_traitsIcESaIcEEESaIS5_EE9push_backEOS5_
.LEHE34:
	leaq	128(%rbp), %rax
	movq	%rax, %rcx
	call	_ZNSt7__cxx1112basic_stringIcSt11char_traitsIcESaIcEED1Ev
	leaq	175(%rbp), %rax
	movq	%rax, %rcx
	call	_ZNSt15__new_allocatorIcED2Ev
	nop
	jmp	.L427
.L441:
	leaq	-32(%rbp), %rax
	movq	%rax, %rcx
.LEHB35:
	call	_ZNKSt14priority_queueI9PathStateSt6vectorIS0_SaIS0_EESt7greaterIS0_EE3topEv
	movq	%rax, %rdx
	leaq	-96(%rbp), %rax
	movq	%rax, %rcx
	call	_ZN9PathStateC1ERKS_
.LEHE35:
	leaq	-32(%rbp), %rax
	movq	%rax, %rcx
.LEHB36:
	call	_ZNSt14priority_queueI9PathStateSt6vectorIS0_SaIS0_EESt7greaterIS0_EE3popEv
	movq	%rbp, %rax
	movq	%rax, %rcx
	call	_ZNSt13unordered_setIiSt4hashIiESt8equal_toIiESaIiEE3endEv
	movq	%rax, 176(%rbp)
	leaq	-96(%rbp), %rdx
	movq	%rbp, %rax
	movq	%rax, %rcx
	call	_ZNSt13unordered_setIiSt4hashIiESt8equal_toIiESaIiEE4findERKi
	movq	%rax, 184(%rbp)
	leaq	176(%rbp), %rdx
	leaq	184(%rbp), %rax
	movq	%rax, %rcx
	call	_ZNSt8__detailneERKNS_14_Node_iteratorIiLb1ELb0EEES3_
	testb	%al, %al
	je	.L428
	movl	$0, %ebx
	jmp	.L429
.L428:
	leaq	192(%rbp), %rax
	leaq	-96(%rbp), %rcx
	movq	%rbp, %rdx
	movq	%rcx, %r8
	movq	%rax, %rcx
	call	_ZNSt13unordered_setIiSt4hashIiESt8equal_toIiESaIiEE6insertERKi
	movq	400(%rbp), %rbx
	movq	408(%rbp), %rax
	movq	112(%rax), %rax
	movl	-96(%rbp), %edx
	movslq	%edx, %rdx
	movq	%rax, %rcx
	call	_ZNSt6vectorI4NodeSaIS0_EEixEy
	addq	$8, %rax
	movq	%rax, %rdx
	movq	%rbx, %rcx
	call	_ZNSt6vectorINSt7__cxx1112basic_stringIcSt11char_traitsIcESaIcEEESaIS5_EE9push_backERKS5_
	subl	$1, 424(%rbp)
	movq	400(%rbp), %rax
	leaq	24(%rax), %rbx
	movq	408(%rbp), %rax
	movq	112(%rax), %rax
	movl	-96(%rbp), %edx
	movslq	%edx, %rdx
	movq	%rax, %rcx
	call	_ZNSt6vectorI4NodeSaIS0_EEixEy
	leaq	8(%rax), %rcx
	leaq	208(%rbp), %rax
	leaq	.LC45(%rip), %rdx
	movq	%rcx, %r8
	movq	%rax, %rcx
	call	_ZStplIcSt11char_traitsIcESaIcEENSt7__cxx1112basic_stringIT_T0_T1_EEPKS5_RKS8_
.LEHE36:
	leaq	208(%rbp), %rax
	movq	%rax, %rdx
	movq	%rbx, %rcx
.LEHB37:
	call	_ZNSt6vectorINSt7__cxx1112basic_stringIcSt11char_traitsIcESaIcEEESaIS5_EE9push_backEOS5_
.LEHE37:
	leaq	208(%rbp), %rax
	movq	%rax, %rcx
	call	_ZNSt7__cxx1112basic_stringIcSt11char_traitsIcESaIcEED1Ev
	movq	408(%rbp), %rax
	movq	112(%rax), %rax
	movl	-96(%rbp), %edx
	movslq	%edx, %rdx
	movq	%rax, %rcx
	call	_ZNSt6vectorI4NodeSaIS0_EEixEy
	addq	$40, %rax
	movq	%rax, 360(%rbp)
	movq	360(%rbp), %rax
	movq	%rax, %rcx
	call	_ZNSt6vectorI4EdgeSaIS0_EE5beginEv
	movq	%rax, -40(%rbp)
	movq	360(%rbp), %rax
	movq	%rax, %rcx
	call	_ZNSt6vectorI4EdgeSaIS0_EE3endEv
	movq	%rax, -48(%rbp)
	jmp	.L430
.L437:
	movq	-40(%rbp), %rax
	movq	%rax, 352(%rbp)
	movq	%rbp, %rax
	movq	%rax, %rcx
	call	_ZNSt13unordered_setIiSt4hashIiESt8equal_toIiESaIiEE3endEv
	movq	%rax, 240(%rbp)
	movq	352(%rbp), %rdx
	movq	%rbp, %rax
	movq	%rax, %rcx
.LEHB38:
	call	_ZNSt13unordered_setIiSt4hashIiESt8equal_toIiESaIiEE4findERKi
.LEHE38:
	movq	%rax, 248(%rbp)
	leaq	240(%rbp), %rdx
	leaq	248(%rbp), %rax
	movq	%rax, %rcx
	call	_ZNSt8__detaileqERKNS_14_Node_iteratorIiLb1ELb0EEES3_
	testb	%al, %al
	je	.L432
	pxor	%xmm0, %xmm0
	movups	%xmm0, 256(%rbp)
	movups	%xmm0, 272(%rbp)
	movups	%xmm0, 288(%rbp)
	movq	352(%rbp), %rax
	movl	(%rax), %eax
	movl	%eax, 256(%rbp)
	movss	-92(%rbp), %xmm1
	movq	352(%rbp), %rax
	movss	40(%rax), %xmm0
	addss	%xmm1, %xmm0
	movss	%xmm0, 260(%rbp)
	leaq	311(%rbp), %rax
	movq	%rax, 328(%rbp)
	nop
	nop
	leaq	311(%rbp), %rcx
	leaq	.LC5(%rip), %rdx
	leaq	256(%rbp), %rax
	addq	$16, %rax
	movq	%rcx, %r8
	movq	%rax, %rcx
.LEHB39:
	call	_ZNSt7__cxx1112basic_stringIcSt11char_traitsIcESaIcEEC1IS3_EEPKcRKS3_
.LEHE39:
	leaq	256(%rbp), %rdx
	leaq	-32(%rbp), %rax
	movq	%rax, %rcx
.LEHB40:
	call	_ZNSt14priority_queueI9PathStateSt6vectorIS0_SaIS0_EESt7greaterIS0_EE4pushEOS0_
.LEHE40:
	leaq	256(%rbp), %rax
	movq	%rax, %rcx
	call	_ZN9PathStateD1Ev
	leaq	311(%rbp), %rax
	movq	%rax, %rcx
	call	_ZNSt15__new_allocatorIcED2Ev
	nop
.L432:
	movq	-40(%rbp), %rax
	addq	$48, %rax
	movq	%rax, -40(%rbp)
	nop
.L430:
	leaq	-40(%rbp), %rax
	movq	%rax, 320(%rbp)
	movq	320(%rbp), %rax
	movq	(%rax), %rdx
	leaq	-48(%rbp), %rax
	movq	%rax, 312(%rbp)
	movq	312(%rbp), %rax
	movq	(%rax), %rax
	cmpq	%rax, %rdx
	setne	%al
	testb	%al, %al
	jne	.L437
	movl	$1, %ebx
.L429:
	leaq	-96(%rbp), %rax
	movq	%rax, %rcx
	call	_ZN9PathStateD1Ev
	cmpl	$1, %ebx
	jne	.L427
	nop
.L427:
	leaq	-32(%rbp), %rax
	movq	%rax, %rcx
	call	_ZNKSt14priority_queueI9PathStateSt6vectorIS0_SaIS0_EESt7greaterIS0_EE5emptyEv
	xorl	$1, %eax
	testb	%al, %al
	je	.L439
	cmpl	$0, 424(%rbp)
	jle	.L439
	movl	$1, %eax
	jmp	.L440
.L439:
	movl	$0, %eax
.L440:
	testb	%al, %al
	jne	.L441
	leaq	-32(%rbp), %rax
	movq	%rax, %rcx
	call	_ZNSt14priority_queueI9PathStateSt6vectorIS0_SaIS0_EESt7greaterIS0_EED1Ev
	movq	%rbp, %rax
	movq	%rax, %rcx
	call	_ZNSt13unordered_setIiSt4hashIiESt8equal_toIiESaIiEED1Ev
	jmp	.L461
.L453:
	movq	%rax, %rbx
	leaq	64(%rbp), %rax
	movq	%rax, %rcx
	call	_ZN9PathStateD1Ev
	jmp	.L444
.L452:
	movq	%rax, %rbx
.L444:
	leaq	127(%rbp), %rax
	movq	%rax, %rcx
	call	_ZNSt15__new_allocatorIcED2Ev
	nop
	jmp	.L445
.L456:
	movq	%rax, %rbx
	leaq	128(%rbp), %rax
	movq	%rax, %rcx
	call	_ZNSt7__cxx1112basic_stringIcSt11char_traitsIcESaIcEED1Ev
	jmp	.L447
.L455:
	movq	%rax, %rbx
.L447:
	leaq	175(%rbp), %rax
	movq	%rax, %rcx
	call	_ZNSt15__new_allocatorIcED2Ev
	nop
	jmp	.L445
.L458:
	movq	%rax, %rbx
	leaq	208(%rbp), %rax
	movq	%rax, %rcx
	call	_ZNSt7__cxx1112basic_stringIcSt11char_traitsIcESaIcEED1Ev
	jmp	.L449
.L460:
	movq	%rax, %rbx
	leaq	256(%rbp), %rax
	movq	%rax, %rcx
	call	_ZN9PathStateD1Ev
	jmp	.L451
.L459:
	movq	%rax, %rbx
.L451:
	leaq	311(%rbp), %rax
	movq	%rax, %rcx
	call	_ZNSt15__new_allocatorIcED2Ev
	nop
	jmp	.L449
.L457:
	movq	%rax, %rbx
.L449:
	leaq	-96(%rbp), %rax
	movq	%rax, %rcx
	call	_ZN9PathStateD1Ev
	jmp	.L445
.L454:
	movq	%rax, %rbx
.L445:
	leaq	-32(%rbp), %rax
	movq	%rax, %rcx
	call	_ZNSt14priority_queueI9PathStateSt6vectorIS0_SaIS0_EESt7greaterIS0_EED1Ev
	movq	%rbp, %rax
	movq	%rax, %rcx
	call	_ZNSt13unordered_setIiSt4hashIiESt8equal_toIiESaIiEED1Ev
	movq	400(%rbp), %rax
	movq	%rax, %rcx
	call	_ZN12SearchResultD1Ev
	movq	%rbx, %rax
	movq	%rax, %rcx
.LEHB41:
	call	_Unwind_Resume
.LEHE41:
.L461:
	movq	400(%rbp), %rax
	addq	$504, %rsp
	popq	%rbx
	popq	%rbp
	ret
	.seh_handler	__gxx_personality_seh0, @unwind, @except
	.seh_handlerdata
.LLSDA9457:
	.byte	0xff
	.byte	0xff
	.byte	0x1
	.uleb128 .LLSDACSE9457-.LLSDACSB9457
.LLSDACSB9457:
	.uleb128 .LEHB31-.LFB9457
	.uleb128 .LEHE31-.LEHB31
	.uleb128 .L452-.LFB9457
	.uleb128 0
	.uleb128 .LEHB32-.LFB9457
	.uleb128 .LEHE32-.LEHB32
	.uleb128 .L453-.LFB9457
	.uleb128 0
	.uleb128 .LEHB33-.LFB9457
	.uleb128 .LEHE33-.LEHB33
	.uleb128 .L455-.LFB9457
	.uleb128 0
	.uleb128 .LEHB34-.LFB9457
	.uleb128 .LEHE34-.LEHB34
	.uleb128 .L456-.LFB9457
	.uleb128 0
	.uleb128 .LEHB35-.LFB9457
	.uleb128 .LEHE35-.LEHB35
	.uleb128 .L454-.LFB9457
	.uleb128 0
	.uleb128 .LEHB36-.LFB9457
	.uleb128 .LEHE36-.LEHB36
	.uleb128 .L457-.LFB9457
	.uleb128 0
	.uleb128 .LEHB37-.LFB9457
	.uleb128 .LEHE37-.LEHB37
	.uleb128 .L458-.LFB9457
	.uleb128 0
	.uleb128 .LEHB38-.LFB9457
	.uleb128 .LEHE38-.LEHB38
	.uleb128 .L457-.LFB9457
	.uleb128 0
	.uleb128 .LEHB39-.LFB9457
	.uleb128 .LEHE39-.LEHB39
	.uleb128 .L459-.LFB9457
	.uleb128 0
	.uleb128 .LEHB40-.LFB9457
	.uleb128 .LEHE40-.LEHB40
	.uleb128 .L460-.LFB9457
	.uleb128 0
	.uleb128 .LEHB41-.LFB9457
	.uleb128 .LEHE41-.LEHB41
	.uleb128 0
	.uleb128 0
.LLSDACSE9457:
	.section	.text$_ZN18SemanticMlfqEngine14SearchDijkstraEii,"x"
	.linkonce discard
	.seh_endproc
	.section .rdata,"dr"
	.align 8
.LC47:
	.ascii "[\354\213\234\354\236\221] \353\236\234\353\215\244 \354\233\214\355\201\254(Lottery) \355\203\220\354\203\211\0"
	.section	.text$_ZN18SemanticMlfqEngine16SearchRandomWalkEii,"x"
	.linkonce discard
	.align 2
	.globl	_ZN18SemanticMlfqEngine16SearchRandomWalkEii
	.def	_ZN18SemanticMlfqEngine16SearchRandomWalkEii;	.scl	2;	.type	32;	.endef
	.seh_proc	_ZN18SemanticMlfqEngine16SearchRandomWalkEii
_ZN18SemanticMlfqEngine16SearchRandomWalkEii:
.LFB9458:
	pushq	%rbp
	.seh_pushreg	%rbp
	pushq	%rbx
	.seh_pushreg	%rbx
	movl	$5304, %eax
	call	___chkstk_ms
	subq	%rax, %rsp
	.seh_stackalloc	5304
	leaq	128(%rsp), %rbp
	.seh_setframe	%rbp, 128
	.seh_endprologue
	movq	%rcx, 5200(%rbp)
	movq	%rdx, 5208(%rbp)
	movl	%r8d, 5216(%rbp)
	movl	%r9d, 5224(%rbp)
	movq	5200(%rbp), %rax
	movq	%rax, %rcx
	call	_ZN12SearchResultC1Ev
	leaq	4960(%rbp), %rax
	movq	%rax, %rcx
	call	_ZNSt13unordered_setIiSt4hashIiESt8equal_toIiESaIiEEC1Ev
	leaq	2448(%rbp), %rax
	movq	%rax, %rcx
.LEHB42:
	call	_ZNSt13random_deviceC1Ev
.LEHE42:
	leaq	2448(%rbp), %rax
	movq	%rax, %rcx
.LEHB43:
	call	_ZNSt13random_deviceclEv
	movl	%eax, %edx
	leaq	-64(%rbp), %rax
	movq	%rax, %rcx
	call	_ZNSt23mersenne_twister_engineIjLy32ELy624ELy397ELy31ELj2567483615ELy11ELj4294967295ELy7ELj2636928640ELy15ELj4022730752ELy18ELj1812433253EEC1Ej
	leaq	-72(%rbp), %rax
	movss	.LC43(%rip), %xmm2
	pxor	%xmm1, %xmm1
	movq	%rax, %rcx
	call	_ZNSt25uniform_real_distributionIfEC1Eff
.LEHE43:
	movl	5216(%rbp), %eax
	movl	%eax, -76(%rbp)
	movq	5200(%rbp), %rax
	leaq	24(%rax), %rbx
	leaq	5071(%rbp), %rax
	movq	%rax, 5144(%rbp)
	nop
	nop
	leaq	5071(%rbp), %rcx
	leaq	.LC47(%rip), %rdx
	leaq	5024(%rbp), %rax
	movq	%rcx, %r8
	movq	%rax, %rcx
.LEHB44:
	call	_ZNSt7__cxx1112basic_stringIcSt11char_traitsIcESaIcEEC1IS3_EEPKcRKS3_
.LEHE44:
	leaq	5024(%rbp), %rax
	movq	%rax, %rdx
	movq	%rbx, %rcx
.LEHB45:
	call	_ZNSt6vectorINSt7__cxx1112basic_stringIcSt11char_traitsIcESaIcEEESaIS5_EE9push_backEOS5_
.LEHE45:
	leaq	5024(%rbp), %rax
	movq	%rax, %rcx
	call	_ZNSt7__cxx1112basic_stringIcSt11char_traitsIcESaIcEED1Ev
	leaq	5071(%rbp), %rax
	movq	%rax, %rcx
	call	_ZNSt15__new_allocatorIcED2Ev
	nop
	movl	$1000, 5164(%rbp)
	jmp	.L463
.L471:
	subl	$1, 5164(%rbp)
	leaq	4960(%rbp), %rax
	movq	%rax, %rcx
	call	_ZNSt13unordered_setIiSt4hashIiESt8equal_toIiESaIiEE3endEv
	movq	%rax, 5072(%rbp)
	leaq	-76(%rbp), %rdx
	leaq	4960(%rbp), %rax
	movq	%rax, %rcx
.LEHB46:
	call	_ZNSt13unordered_setIiSt4hashIiESt8equal_toIiESaIiEE4findERKi
	movq	%rax, 5080(%rbp)
	leaq	5072(%rbp), %rdx
	leaq	5080(%rbp), %rax
	movq	%rax, %rcx
	call	_ZNSt8__detaileqERKNS_14_Node_iteratorIiLb1ELb0EEES3_
	testb	%al, %al
	je	.L464
	leaq	5088(%rbp), %rax
	leaq	-76(%rbp), %rcx
	leaq	4960(%rbp), %rdx
	movq	%rcx, %r8
	movq	%rax, %rcx
	call	_ZNSt13unordered_setIiSt4hashIiESt8equal_toIiESaIiEE6insertERKi
	movq	5200(%rbp), %rbx
	movq	5208(%rbp), %rax
	movq	112(%rax), %rax
	movl	-76(%rbp), %edx
	movslq	%edx, %rdx
	movq	%rax, %rcx
	call	_ZNSt6vectorI4NodeSaIS0_EEixEy
	addq	$8, %rax
	movq	%rax, %rdx
	movq	%rbx, %rcx
	call	_ZNSt6vectorINSt7__cxx1112basic_stringIcSt11char_traitsIcESaIcEEESaIS5_EE9push_backERKS5_
	movq	5200(%rbp), %rax
	leaq	24(%rax), %rbx
	movq	5208(%rbp), %rax
	movq	112(%rax), %rax
	movl	-76(%rbp), %edx
	movslq	%edx, %rdx
	movq	%rax, %rcx
	call	_ZNSt6vectorI4NodeSaIS0_EEixEy
	leaq	8(%rax), %rcx
	leaq	5104(%rbp), %rax
	leaq	.LC45(%rip), %rdx
	movq	%rcx, %r8
	movq	%rax, %rcx
	call	_ZStplIcSt11char_traitsIcESaIcEENSt7__cxx1112basic_stringIT_T0_T1_EEPKS5_RKS8_
.LEHE46:
	leaq	5104(%rbp), %rax
	movq	%rax, %rdx
	movq	%rbx, %rcx
.LEHB47:
	call	_ZNSt6vectorINSt7__cxx1112basic_stringIcSt11char_traitsIcESaIcEEESaIS5_EE9push_backEOS5_
.LEHE47:
	leaq	5104(%rbp), %rax
	movq	%rax, %rcx
	call	_ZNSt7__cxx1112basic_stringIcSt11char_traitsIcESaIcEED1Ev
	subl	$1, 5224(%rbp)
.L464:
	movq	5208(%rbp), %rax
	movq	112(%rax), %rax
	movl	-76(%rbp), %edx
	movslq	%edx, %rdx
	movq	%rax, %rcx
	call	_ZNSt6vectorI4NodeSaIS0_EEixEy
	addq	$40, %rax
	movq	%rax, 5152(%rbp)
	movq	5152(%rbp), %rax
	movq	%rax, %rcx
	call	_ZNKSt6vectorI4EdgeSaIS0_EE5emptyEv
	testb	%al, %al
	jne	.L465
	leaq	-64(%rbp), %rdx
	leaq	-72(%rbp), %rax
	movq	%rax, %rcx
.LEHB48:
	call	_ZNSt25uniform_real_distributionIfEclISt23mersenne_twister_engineIjLy32ELy624ELy397ELy31ELj2567483615ELy11ELj4294967295ELy7ELj2636928640ELy15ELj4022730752ELy18ELj1812433253EEEEfRT_
	movss	.LC48(%rip), %xmm1
	comiss	%xmm0, %xmm1
	jbe	.L483
.L465:
	movl	$1, %eax
	jmp	.L468
.L483:
	movl	$0, %eax
.L468:
	testb	%al, %al
	je	.L469
	movl	5216(%rbp), %eax
	movl	%eax, -76(%rbp)
	jmp	.L463
.L469:
	movq	5152(%rbp), %rax
	movq	%rax, %rcx
	call	_ZNKSt6vectorI4EdgeSaIS0_EE4sizeEv
	subl	$1, %eax
	movl	%eax, %edx
	leaq	-84(%rbp), %rax
	movl	%edx, %r8d
	movl	$0, %edx
	movq	%rax, %rcx
	call	_ZNSt24uniform_int_distributionIiEC1Eii
	leaq	-64(%rbp), %rdx
	leaq	-84(%rbp), %rax
	movq	%rax, %rcx
	call	_ZNSt24uniform_int_distributionIiEclISt23mersenne_twister_engineIjLy32ELy624ELy397ELy31ELj2567483615ELy11ELj4294967295ELy7ELj2636928640ELy15ELj4022730752ELy18ELj1812433253EEEEiRT_
.LEHE48:
	movslq	%eax, %rdx
	movq	5152(%rbp), %rax
	movq	%rax, %rcx
	call	_ZNSt6vectorI4EdgeSaIS0_EEixEy
	movl	(%rax), %eax
	movl	%eax, -76(%rbp)
.L463:
	cmpl	$0, 5224(%rbp)
	jle	.L470
	cmpl	$0, 5164(%rbp)
	jg	.L471
.L470:
	leaq	2448(%rbp), %rax
	movq	%rax, %rcx
	call	_ZNSt13random_deviceD1Ev
	leaq	4960(%rbp), %rax
	movq	%rax, %rcx
	call	_ZNSt13unordered_setIiSt4hashIiESt8equal_toIiESaIiEED1Ev
	jmp	.L484
.L481:
	movq	%rax, %rbx
	leaq	5024(%rbp), %rax
	movq	%rax, %rcx
	call	_ZNSt7__cxx1112basic_stringIcSt11char_traitsIcESaIcEED1Ev
	jmp	.L474
.L480:
	movq	%rax, %rbx
.L474:
	leaq	5071(%rbp), %rax
	movq	%rax, %rcx
	call	_ZNSt15__new_allocatorIcED2Ev
	nop
	jmp	.L475
.L482:
	movq	%rax, %rbx
	leaq	5104(%rbp), %rax
	movq	%rax, %rcx
	call	_ZNSt7__cxx1112basic_stringIcSt11char_traitsIcESaIcEED1Ev
	jmp	.L475
.L479:
	movq	%rax, %rbx
.L475:
	leaq	2448(%rbp), %rax
	movq	%rax, %rcx
	call	_ZNSt13random_deviceD1Ev
	jmp	.L477
.L478:
	movq	%rax, %rbx
.L477:
	leaq	4960(%rbp), %rax
	movq	%rax, %rcx
	call	_ZNSt13unordered_setIiSt4hashIiESt8equal_toIiESaIiEED1Ev
	movq	5200(%rbp), %rax
	movq	%rax, %rcx
	call	_ZN12SearchResultD1Ev
	movq	%rbx, %rax
	movq	%rax, %rcx
.LEHB49:
	call	_Unwind_Resume
.LEHE49:
.L484:
	movq	5200(%rbp), %rax
	addq	$5304, %rsp
	popq	%rbx
	popq	%rbp
	ret
	.seh_handler	__gxx_personality_seh0, @unwind, @except
	.seh_handlerdata
.LLSDA9458:
	.byte	0xff
	.byte	0xff
	.byte	0x1
	.uleb128 .LLSDACSE9458-.LLSDACSB9458
.LLSDACSB9458:
	.uleb128 .LEHB42-.LFB9458
	.uleb128 .LEHE42-.LEHB42
	.uleb128 .L478-.LFB9458
	.uleb128 0
	.uleb128 .LEHB43-.LFB9458
	.uleb128 .LEHE43-.LEHB43
	.uleb128 .L479-.LFB9458
	.uleb128 0
	.uleb128 .LEHB44-.LFB9458
	.uleb128 .LEHE44-.LEHB44
	.uleb128 .L480-.LFB9458
	.uleb128 0
	.uleb128 .LEHB45-.LFB9458
	.uleb128 .LEHE45-.LEHB45
	.uleb128 .L481-.LFB9458
	.uleb128 0
	.uleb128 .LEHB46-.LFB9458
	.uleb128 .LEHE46-.LEHB46
	.uleb128 .L479-.LFB9458
	.uleb128 0
	.uleb128 .LEHB47-.LFB9458
	.uleb128 .LEHE47-.LEHB47
	.uleb128 .L482-.LFB9458
	.uleb128 0
	.uleb128 .LEHB48-.LFB9458
	.uleb128 .LEHE48-.LEHB48
	.uleb128 .L479-.LFB9458
	.uleb128 0
	.uleb128 .LEHB49-.LFB9458
	.uleb128 .LEHE49-.LEHB49
	.uleb128 0
	.uleb128 0
.LLSDACSE9458:
	.section	.text$_ZN18SemanticMlfqEngine16SearchRandomWalkEii,"x"
	.linkonce discard
	.seh_endproc
	.section	.text$_ZN18SemanticMlfqEngine11HasElementsEv,"x"
	.linkonce discard
	.align 2
	.globl	_ZN18SemanticMlfqEngine11HasElementsEv
	.def	_ZN18SemanticMlfqEngine11HasElementsEv;	.scl	2;	.type	32;	.endef
	.seh_proc	_ZN18SemanticMlfqEngine11HasElementsEv
_ZN18SemanticMlfqEngine11HasElementsEv:
.LFB9459:
	pushq	%rbp
	.seh_pushreg	%rbp
	movq	%rsp, %rbp
	.seh_setframe	%rbp, 0
	subq	$32, %rsp
	.seh_stackalloc	32
	.seh_endprologue
	movq	%rcx, 16(%rbp)
	movq	16(%rbp), %rax
	movq	%rax, %rcx
	call	_ZNKSt14priority_queueI9PathStateSt6vectorIS0_SaIS0_EESt7greaterIS0_EE5emptyEv
	xorl	$1, %eax
	testb	%al, %al
	jne	.L486
	movq	16(%rbp), %rax
	addq	$32, %rax
	movq	%rax, %rcx
	call	_ZNKSt14priority_queueI9PathStateSt6vectorIS0_SaIS0_EESt7greaterIS0_EE5emptyEv
	xorl	$1, %eax
	testb	%al, %al
	jne	.L486
	movq	16(%rbp), %rax
	addq	$64, %rax
	movq	%rax, %rcx
	call	_ZNKSt14priority_queueI9PathStateSt6vectorIS0_SaIS0_EESt7greaterIS0_EE5emptyEv
	xorl	$1, %eax
	testb	%al, %al
	je	.L487
.L486:
	movl	$1, %eax
	jmp	.L488
.L487:
	movl	$0, %eax
.L488:
	addq	$32, %rsp
	popq	%rbp
	ret
	.seh_endproc
	.section	.text$_ZN18SemanticMlfqEngine28GetHighestPriorityQueueIndexEv,"x"
	.linkonce discard
	.align 2
	.globl	_ZN18SemanticMlfqEngine28GetHighestPriorityQueueIndexEv
	.def	_ZN18SemanticMlfqEngine28GetHighestPriorityQueueIndexEv;	.scl	2;	.type	32;	.endef
	.seh_proc	_ZN18SemanticMlfqEngine28GetHighestPriorityQueueIndexEv
_ZN18SemanticMlfqEngine28GetHighestPriorityQueueIndexEv:
.LFB9460:
	pushq	%rbp
	.seh_pushreg	%rbp
	movq	%rsp, %rbp
	.seh_setframe	%rbp, 0
	subq	$48, %rsp
	.seh_stackalloc	48
	.seh_endprologue
	movq	%rcx, 16(%rbp)
	movl	$0, -4(%rbp)
	jmp	.L491
.L494:
	movl	-4(%rbp), %eax
	cltq
	salq	$5, %rax
	movq	%rax, %rdx
	movq	16(%rbp), %rax
	addq	%rdx, %rax
	movq	%rax, %rcx
	call	_ZNKSt14priority_queueI9PathStateSt6vectorIS0_SaIS0_EESt7greaterIS0_EE5emptyEv
	xorl	$1, %eax
	testb	%al, %al
	je	.L492
	movl	-4(%rbp), %eax
	jmp	.L493
.L492:
	addl	$1, -4(%rbp)
.L491:
	cmpl	$2, -4(%rbp)
	jle	.L494
	movl	$-1, %eax
.L493:
	addq	$48, %rsp
	popq	%rbp
	ret
	.seh_endproc
	.section	.text$_ZNSt12_Vector_baseI9PathStateSaIS0_EE12_Vector_implD1Ev,"x"
	.linkonce discard
	.align 2
	.globl	_ZNSt12_Vector_baseI9PathStateSaIS0_EE12_Vector_implD1Ev
	.def	_ZNSt12_Vector_baseI9PathStateSaIS0_EE12_Vector_implD1Ev;	.scl	2;	.type	32;	.endef
	.seh_proc	_ZNSt12_Vector_baseI9PathStateSaIS0_EE12_Vector_implD1Ev
_ZNSt12_Vector_baseI9PathStateSaIS0_EE12_Vector_implD1Ev:
.LFB9466:
	pushq	%rbp
	.seh_pushreg	%rbp
	movq	%rsp, %rbp
	.seh_setframe	%rbp, 0
	subq	$48, %rsp
	.seh_stackalloc	48
	.seh_endprologue
	movq	%rcx, 16(%rbp)
	movq	16(%rbp), %rax
	movq	%rax, -8(%rbp)
	movq	-8(%rbp), %rax
	movq	%rax, %rcx
	call	_ZNSt15__new_allocatorI9PathStateED2Ev
	nop
	nop
	addq	$48, %rsp
	popq	%rbp
	ret
	.seh_endproc
	.section	.text$_ZNSt12_Vector_baseI9PathStateSaIS0_EEC2Ev,"x"
	.linkonce discard
	.align 2
	.globl	_ZNSt12_Vector_baseI9PathStateSaIS0_EEC2Ev
	.def	_ZNSt12_Vector_baseI9PathStateSaIS0_EEC2Ev;	.scl	2;	.type	32;	.endef
	.seh_proc	_ZNSt12_Vector_baseI9PathStateSaIS0_EEC2Ev
_ZNSt12_Vector_baseI9PathStateSaIS0_EEC2Ev:
.LFB9467:
	pushq	%rbp
	.seh_pushreg	%rbp
	movq	%rsp, %rbp
	.seh_setframe	%rbp, 0
	subq	$32, %rsp
	.seh_stackalloc	32
	.seh_endprologue
	movq	%rcx, 16(%rbp)
	movq	16(%rbp), %rax
	movq	%rax, %rcx
	call	_ZNSt12_Vector_baseI9PathStateSaIS0_EE12_Vector_implC1Ev
	nop
	addq	$32, %rsp
	popq	%rbp
	ret
	.seh_endproc
	.section	.text$_ZNSt6vectorI9PathStateSaIS0_EEC1Ev,"x"
	.linkonce discard
	.align 2
	.globl	_ZNSt6vectorI9PathStateSaIS0_EEC1Ev
	.def	_ZNSt6vectorI9PathStateSaIS0_EEC1Ev;	.scl	2;	.type	32;	.endef
	.seh_proc	_ZNSt6vectorI9PathStateSaIS0_EEC1Ev
_ZNSt6vectorI9PathStateSaIS0_EEC1Ev:
.LFB9470:
	pushq	%rbp
	.seh_pushreg	%rbp
	movq	%rsp, %rbp
	.seh_setframe	%rbp, 0
	subq	$32, %rsp
	.seh_stackalloc	32
	.seh_endprologue
	movq	%rcx, 16(%rbp)
	movq	16(%rbp), %rax
	movq	%rax, %rcx
	call	_ZNSt12_Vector_baseI9PathStateSaIS0_EEC2Ev
	nop
	addq	$32, %rsp
	popq	%rbp
	ret
	.seh_endproc
	.section	.text$_ZN18SemanticMlfqEngine10ApplyAgingERSt6vectorINSt7__cxx1112basic_stringIcSt11char_traitsIcESaIcEEESaIS6_EE,"x"
	.linkonce discard
	.align 2
	.globl	_ZN18SemanticMlfqEngine10ApplyAgingERSt6vectorINSt7__cxx1112basic_stringIcSt11char_traitsIcESaIcEEESaIS6_EE
	.def	_ZN18SemanticMlfqEngine10ApplyAgingERSt6vectorINSt7__cxx1112basic_stringIcSt11char_traitsIcESaIcEEESaIS6_EE;	.scl	2;	.type	32;	.endef
	.seh_proc	_ZN18SemanticMlfqEngine10ApplyAgingERSt6vectorINSt7__cxx1112basic_stringIcSt11char_traitsIcESaIcEEESaIS6_EE
_ZN18SemanticMlfqEngine10ApplyAgingERSt6vectorINSt7__cxx1112basic_stringIcSt11char_traitsIcESaIcEEESaIS6_EE:
.LFB9461:
	pushq	%rbp
	.seh_pushreg	%rbp
	pushq	%rbx
	.seh_pushreg	%rbx
	subq	$200, %rsp
	.seh_stackalloc	200
	leaq	192(%rsp), %rbp
	.seh_setframe	%rbp, 192
	.seh_endprologue
	movq	%rcx, 32(%rbp)
	movq	%rdx, 40(%rbp)
	leaq	-96(%rbp), %rax
	movq	%rax, %rcx
	call	_ZNSt6vectorI9PathStateSaIS0_EEC1Ev
	jmp	.L499
.L500:
	movq	32(%rbp), %rax
	addq	$32, %rax
	movq	%rax, %rcx
.LEHB50:
	call	_ZNKSt14priority_queueI9PathStateSt6vectorIS0_SaIS0_EESt7greaterIS0_EE3topEv
	movq	%rax, %rdx
	leaq	-96(%rbp), %rax
	movq	%rax, %rcx
	call	_ZNSt6vectorI9PathStateSaIS0_EE9push_backERKS0_
	movq	32(%rbp), %rax
	addq	$32, %rax
	movq	%rax, %rcx
	call	_ZNSt14priority_queueI9PathStateSt6vectorIS0_SaIS0_EESt7greaterIS0_EE3popEv
.L499:
	movq	32(%rbp), %rax
	addq	$32, %rax
	movq	%rax, %rcx
	call	_ZNKSt14priority_queueI9PathStateSt6vectorIS0_SaIS0_EESt7greaterIS0_EE5emptyEv
	xorl	$1, %eax
	testb	%al, %al
	jne	.L500
	leaq	-96(%rbp), %rax
	movq	%rax, -8(%rbp)
	movq	-8(%rbp), %rax
	movq	%rax, %rcx
	call	_ZNSt6vectorI9PathStateSaIS0_EE5beginEv
	movq	%rax, -136(%rbp)
	movq	-8(%rbp), %rax
	movq	%rax, %rcx
	call	_ZNSt6vectorI9PathStateSaIS0_EE3endEv
	movq	%rax, -144(%rbp)
	jmp	.L501
.L507:
	movq	-136(%rbp), %rax
	movq	%rax, -32(%rbp)
	movq	-32(%rbp), %rax
	movl	$0, 8(%rax)
	movq	32(%rbp), %rax
	movq	-32(%rbp), %rdx
	movq	%rax, %rcx
	call	_ZNSt14priority_queueI9PathStateSt6vectorIS0_SaIS0_EESt7greaterIS0_EE4pushERKS0_
.LEHE50:
	movq	-136(%rbp), %rax
	addq	$48, %rax
	movq	%rax, -136(%rbp)
	nop
.L501:
	leaq	-136(%rbp), %rax
	movq	%rax, -40(%rbp)
	movq	-40(%rbp), %rax
	movq	(%rax), %rdx
	leaq	-144(%rbp), %rax
	movq	%rax, -48(%rbp)
	movq	-48(%rbp), %rax
	movq	(%rax), %rax
	cmpq	%rax, %rdx
	setne	%al
	testb	%al, %al
	jne	.L507
	leaq	-128(%rbp), %rax
	movq	%rax, %rcx
	call	_ZNSt6vectorI9PathStateSaIS0_EEC1Ev
	jmp	.L508
.L509:
	movq	32(%rbp), %rax
	addq	$64, %rax
	movq	%rax, %rcx
.LEHB51:
	call	_ZNKSt14priority_queueI9PathStateSt6vectorIS0_SaIS0_EESt7greaterIS0_EE3topEv
	movq	%rax, %rdx
	leaq	-128(%rbp), %rax
	movq	%rax, %rcx
	call	_ZNSt6vectorI9PathStateSaIS0_EE9push_backERKS0_
	movq	32(%rbp), %rax
	addq	$64, %rax
	movq	%rax, %rcx
	call	_ZNSt14priority_queueI9PathStateSt6vectorIS0_SaIS0_EESt7greaterIS0_EE3popEv
.L508:
	movq	32(%rbp), %rax
	addq	$64, %rax
	movq	%rax, %rcx
	call	_ZNKSt14priority_queueI9PathStateSt6vectorIS0_SaIS0_EESt7greaterIS0_EE5emptyEv
	xorl	$1, %eax
	testb	%al, %al
	jne	.L509
	leaq	-128(%rbp), %rax
	movq	%rax, -16(%rbp)
	movq	-16(%rbp), %rax
	movq	%rax, %rcx
	call	_ZNSt6vectorI9PathStateSaIS0_EE5beginEv
	movq	%rax, -152(%rbp)
	movq	-16(%rbp), %rax
	movq	%rax, %rcx
	call	_ZNSt6vectorI9PathStateSaIS0_EE3endEv
	movq	%rax, -160(%rbp)
	jmp	.L510
.L516:
	movq	-152(%rbp), %rax
	movq	%rax, -24(%rbp)
	movq	-24(%rbp), %rax
	movl	$0, 8(%rax)
	movq	32(%rbp), %rax
	leaq	32(%rax), %rcx
	movq	-24(%rbp), %rax
	movq	%rax, %rdx
	call	_ZNSt14priority_queueI9PathStateSt6vectorIS0_SaIS0_EESt7greaterIS0_EE4pushERKS0_
.LEHE51:
	movq	-152(%rbp), %rax
	addq	$48, %rax
	movq	%rax, -152(%rbp)
	nop
.L510:
	leaq	-152(%rbp), %rax
	movq	%rax, -56(%rbp)
	movq	-56(%rbp), %rax
	movq	(%rax), %rdx
	leaq	-160(%rbp), %rax
	movq	%rax, -64(%rbp)
	movq	-64(%rbp), %rax
	movq	(%rax), %rax
	cmpq	%rax, %rdx
	setne	%al
	testb	%al, %al
	jne	.L516
	leaq	-128(%rbp), %rax
	movq	%rax, %rcx
	call	_ZNSt6vectorI9PathStateSaIS0_EED1Ev
	leaq	-96(%rbp), %rax
	movq	%rax, %rcx
	call	_ZNSt6vectorI9PathStateSaIS0_EED1Ev
	jmp	.L521
.L520:
	movq	%rax, %rbx
	leaq	-128(%rbp), %rax
	movq	%rax, %rcx
	call	_ZNSt6vectorI9PathStateSaIS0_EED1Ev
	jmp	.L518
.L519:
	movq	%rax, %rbx
.L518:
	leaq	-96(%rbp), %rax
	movq	%rax, %rcx
	call	_ZNSt6vectorI9PathStateSaIS0_EED1Ev
	movq	%rbx, %rax
	movq	%rax, %rcx
.LEHB52:
	call	_Unwind_Resume
	nop
.LEHE52:
.L521:
	addq	$200, %rsp
	popq	%rbx
	popq	%rbp
	ret
	.seh_handler	__gxx_personality_seh0, @unwind, @except
	.seh_handlerdata
.LLSDA9461:
	.byte	0xff
	.byte	0xff
	.byte	0x1
	.uleb128 .LLSDACSE9461-.LLSDACSB9461
.LLSDACSB9461:
	.uleb128 .LEHB50-.LFB9461
	.uleb128 .LEHE50-.LEHB50
	.uleb128 .L519-.LFB9461
	.uleb128 0
	.uleb128 .LEHB51-.LFB9461
	.uleb128 .LEHE51-.LEHB51
	.uleb128 .L520-.LFB9461
	.uleb128 0
	.uleb128 .LEHB52-.LFB9461
	.uleb128 .LEHE52-.LEHB52
	.uleb128 0
	.uleb128 0
.LLSDACSE9461:
	.section	.text$_ZN18SemanticMlfqEngine10ApplyAgingERSt6vectorINSt7__cxx1112basic_stringIcSt11char_traitsIcESaIcEEESaIS6_EE,"x"
	.linkonce discard
	.seh_endproc
	.section	.text$_ZN4NodeD1Ev,"x"
	.linkonce discard
	.align 2
	.globl	_ZN4NodeD1Ev
	.def	_ZN4NodeD1Ev;	.scl	2;	.type	32;	.endef
	.seh_proc	_ZN4NodeD1Ev
_ZN4NodeD1Ev:
.LFB9481:
	pushq	%rbp
	.seh_pushreg	%rbp
	movq	%rsp, %rbp
	.seh_setframe	%rbp, 0
	subq	$32, %rsp
	.seh_stackalloc	32
	.seh_endprologue
	movq	%rcx, 16(%rbp)
	movq	16(%rbp), %rax
	addq	$40, %rax
	movq	%rax, %rcx
	call	_ZNSt6vectorI4EdgeSaIS0_EED1Ev
	movq	16(%rbp), %rax
	addq	$8, %rax
	movq	%rax, %rcx
	call	_ZNSt7__cxx1112basic_stringIcSt11char_traitsIcESaIcEED1Ev
	nop
	addq	$32, %rsp
	popq	%rbp
	ret
	.seh_endproc
	.section	.text$_ZN14KnowledgeGraph15get_or_add_nodeENSt7__cxx1112basic_stringIcSt11char_traitsIcESaIcEEE,"x"
	.linkonce discard
	.align 2
	.globl	_ZN14KnowledgeGraph15get_or_add_nodeENSt7__cxx1112basic_stringIcSt11char_traitsIcESaIcEEE
	.def	_ZN14KnowledgeGraph15get_or_add_nodeENSt7__cxx1112basic_stringIcSt11char_traitsIcESaIcEEE;	.scl	2;	.type	32;	.endef
	.seh_proc	_ZN14KnowledgeGraph15get_or_add_nodeENSt7__cxx1112basic_stringIcSt11char_traitsIcESaIcEEE
_ZN14KnowledgeGraph15get_or_add_nodeENSt7__cxx1112basic_stringIcSt11char_traitsIcESaIcEEE:
.LFB9477:
	pushq	%rbp
	.seh_pushreg	%rbp
	pushq	%rbx
	.seh_pushreg	%rbx
	subq	$184, %rsp
	.seh_stackalloc	184
	leaq	176(%rsp), %rbp
	.seh_setframe	%rbp, 176
	.seh_endprologue
	movq	%rcx, 32(%rbp)
	movq	%rdx, 40(%rbp)
	movq	32(%rbp), %rax
	addq	$24, %rax
	movq	%rax, %rcx
	call	_ZNSt13unordered_mapINSt7__cxx1112basic_stringIcSt11char_traitsIcESaIcEEEiSt4hashIS5_ESt8equal_toIS5_ESaISt4pairIKS5_iEEE3endEv
	movq	%rax, -144(%rbp)
	movq	32(%rbp), %rax
	leaq	24(%rax), %rcx
	movq	40(%rbp), %rax
	movq	%rax, %rdx
.LEHB53:
	call	_ZNSt13unordered_mapINSt7__cxx1112basic_stringIcSt11char_traitsIcESaIcEEEiSt4hashIS5_ESt8equal_toIS5_ESaISt4pairIKS5_iEEE4findERSB_
	movq	%rax, -136(%rbp)
	leaq	-144(%rbp), %rdx
	leaq	-136(%rbp), %rax
	movq	%rax, %rcx
	call	_ZNSt8__detaileqERKNS_14_Node_iteratorISt4pairIKNSt7__cxx1112basic_stringIcSt11char_traitsIcESaIcEEEiELb0ELb1EEESC_
	testb	%al, %al
	je	.L524
	movq	32(%rbp), %rax
	movq	%rax, %rcx
	call	_ZNKSt6vectorI4NodeSaIS0_EE4sizeEv
	movl	%eax, -4(%rbp)
	movq	32(%rbp), %rbx
	movq	40(%rbp), %rdx
	leaq	-48(%rbp), %rax
	movq	%rax, %rcx
	call	_ZNSt7__cxx1112basic_stringIcSt11char_traitsIcESaIcEEC1ERKS4_
.LEHE53:
	leaq	-48(%rbp), %rcx
	movl	-4(%rbp), %edx
	leaq	-128(%rbp), %rax
	movq	%rcx, %r8
	movq	%rax, %rcx
.LEHB54:
	call	_ZN4NodeC1EiNSt7__cxx1112basic_stringIcSt11char_traitsIcESaIcEEE
.LEHE54:
	leaq	-128(%rbp), %rax
	movq	%rax, %rdx
	movq	%rbx, %rcx
.LEHB55:
	call	_ZNSt6vectorI4NodeSaIS0_EE9push_backEOS0_
.LEHE55:
	leaq	-128(%rbp), %rax
	movq	%rax, %rcx
	call	_ZN4NodeD1Ev
	leaq	-48(%rbp), %rax
	movq	%rax, %rcx
	call	_ZNSt7__cxx1112basic_stringIcSt11char_traitsIcESaIcEED1Ev
	movl	-4(%rbp), %ebx
	movq	32(%rbp), %rax
	leaq	24(%rax), %rcx
	movq	40(%rbp), %rax
	movq	%rax, %rdx
.LEHB56:
	call	_ZNSt13unordered_mapINSt7__cxx1112basic_stringIcSt11char_traitsIcESaIcEEEiSt4hashIS5_ESt8equal_toIS5_ESaISt4pairIKS5_iEEEixERSB_
	movl	%ebx, (%rax)
	movl	-4(%rbp), %eax
	jmp	.L530
.L524:
	movq	32(%rbp), %rax
	leaq	24(%rax), %rcx
	movq	40(%rbp), %rax
	movq	%rax, %rdx
	call	_ZNSt13unordered_mapINSt7__cxx1112basic_stringIcSt11char_traitsIcESaIcEEEiSt4hashIS5_ESt8equal_toIS5_ESaISt4pairIKS5_iEEEixERSB_
	movl	(%rax), %eax
	jmp	.L530
.L529:
	movq	%rax, %rbx
	leaq	-128(%rbp), %rax
	movq	%rax, %rcx
	call	_ZN4NodeD1Ev
	jmp	.L527
.L528:
	movq	%rax, %rbx
.L527:
	leaq	-48(%rbp), %rax
	movq	%rax, %rcx
	call	_ZNSt7__cxx1112basic_stringIcSt11char_traitsIcESaIcEED1Ev
	movq	%rbx, %rax
	movq	%rax, %rcx
	call	_Unwind_Resume
.LEHE56:
.L530:
	addq	$184, %rsp
	popq	%rbx
	popq	%rbp
	ret
	.seh_handler	__gxx_personality_seh0, @unwind, @except
	.seh_handlerdata
.LLSDA9477:
	.byte	0xff
	.byte	0xff
	.byte	0x1
	.uleb128 .LLSDACSE9477-.LLSDACSB9477
.LLSDACSB9477:
	.uleb128 .LEHB53-.LFB9477
	.uleb128 .LEHE53-.LEHB53
	.uleb128 0
	.uleb128 0
	.uleb128 .LEHB54-.LFB9477
	.uleb128 .LEHE54-.LEHB54
	.uleb128 .L528-.LFB9477
	.uleb128 0
	.uleb128 .LEHB55-.LFB9477
	.uleb128 .LEHE55-.LEHB55
	.uleb128 .L529-.LFB9477
	.uleb128 0
	.uleb128 .LEHB56-.LFB9477
	.uleb128 .LEHE56-.LEHB56
	.uleb128 0
	.uleb128 0
.LLSDACSE9477:
	.section	.text$_ZN14KnowledgeGraph15get_or_add_nodeENSt7__cxx1112basic_stringIcSt11char_traitsIcESaIcEEE,"x"
	.linkonce discard
	.seh_endproc
	.section	.text$_ZNSt12_Vector_baseI4NodeSaIS0_EE12_Vector_implD1Ev,"x"
	.linkonce discard
	.align 2
	.globl	_ZNSt12_Vector_baseI4NodeSaIS0_EE12_Vector_implD1Ev
	.def	_ZNSt12_Vector_baseI4NodeSaIS0_EE12_Vector_implD1Ev;	.scl	2;	.type	32;	.endef
	.seh_proc	_ZNSt12_Vector_baseI4NodeSaIS0_EE12_Vector_implD1Ev
_ZNSt12_Vector_baseI4NodeSaIS0_EE12_Vector_implD1Ev:
.LFB9573:
	pushq	%rbp
	.seh_pushreg	%rbp
	movq	%rsp, %rbp
	.seh_setframe	%rbp, 0
	subq	$48, %rsp
	.seh_stackalloc	48
	.seh_endprologue
	movq	%rcx, 16(%rbp)
	movq	16(%rbp), %rax
	movq	%rax, -8(%rbp)
	movq	-8(%rbp), %rax
	movq	%rax, %rcx
	call	_ZNSt15__new_allocatorI4NodeED2Ev
	nop
	nop
	addq	$48, %rsp
	popq	%rbp
	ret
	.seh_endproc
	.section	.text$_ZNSt12_Vector_baseI4NodeSaIS0_EEC2Ev,"x"
	.linkonce discard
	.align 2
	.globl	_ZNSt12_Vector_baseI4NodeSaIS0_EEC2Ev
	.def	_ZNSt12_Vector_baseI4NodeSaIS0_EEC2Ev;	.scl	2;	.type	32;	.endef
	.seh_proc	_ZNSt12_Vector_baseI4NodeSaIS0_EEC2Ev
_ZNSt12_Vector_baseI4NodeSaIS0_EEC2Ev:
.LFB9574:
	pushq	%rbp
	.seh_pushreg	%rbp
	movq	%rsp, %rbp
	.seh_setframe	%rbp, 0
	subq	$32, %rsp
	.seh_stackalloc	32
	.seh_endprologue
	movq	%rcx, 16(%rbp)
	movq	16(%rbp), %rax
	movq	%rax, %rcx
	call	_ZNSt12_Vector_baseI4NodeSaIS0_EE12_Vector_implC1Ev
	nop
	addq	$32, %rsp
	popq	%rbp
	ret
	.seh_endproc
	.section	.text$_ZNSt6vectorI4NodeSaIS0_EEC1Ev,"x"
	.linkonce discard
	.align 2
	.globl	_ZNSt6vectorI4NodeSaIS0_EEC1Ev
	.def	_ZNSt6vectorI4NodeSaIS0_EEC1Ev;	.scl	2;	.type	32;	.endef
	.seh_proc	_ZNSt6vectorI4NodeSaIS0_EEC1Ev
_ZNSt6vectorI4NodeSaIS0_EEC1Ev:
.LFB9577:
	pushq	%rbp
	.seh_pushreg	%rbp
	movq	%rsp, %rbp
	.seh_setframe	%rbp, 0
	subq	$32, %rsp
	.seh_stackalloc	32
	.seh_endprologue
	movq	%rcx, 16(%rbp)
	movq	16(%rbp), %rax
	movq	%rax, %rcx
	call	_ZNSt12_Vector_baseI4NodeSaIS0_EEC2Ev
	nop
	addq	$32, %rsp
	popq	%rbp
	ret
	.seh_endproc
	.section	.text$_ZNSt8__detail15_Hash_code_baseINSt7__cxx1112basic_stringIcSt11char_traitsIcESaIcEEESt4pairIKS6_iENS_10_Select1stESt4hashIS6_ENS_18_Mod_range_hashingENS_20_Default_ranged_hashELb1EEC2Ev,"x"
	.linkonce discard
	.align 2
	.globl	_ZNSt8__detail15_Hash_code_baseINSt7__cxx1112basic_stringIcSt11char_traitsIcESaIcEEESt4pairIKS6_iENS_10_Select1stESt4hashIS6_ENS_18_Mod_range_hashingENS_20_Default_ranged_hashELb1EEC2Ev
	.def	_ZNSt8__detail15_Hash_code_baseINSt7__cxx1112basic_stringIcSt11char_traitsIcESaIcEEESt4pairIKS6_iENS_10_Select1stESt4hashIS6_ENS_18_Mod_range_hashingENS_20_Default_ranged_hashELb1EEC2Ev;	.scl	2;	.type	32;	.endef
	.seh_proc	_ZNSt8__detail15_Hash_code_baseINSt7__cxx1112basic_stringIcSt11char_traitsIcESaIcEEESt4pairIKS6_iENS_10_Select1stESt4hashIS6_ENS_18_Mod_range_hashingENS_20_Default_ranged_hashELb1EEC2Ev
_ZNSt8__detail15_Hash_code_baseINSt7__cxx1112basic_stringIcSt11char_traitsIcESaIcEEESt4pairIKS6_iENS_10_Select1stESt4hashIS6_ENS_18_Mod_range_hashingENS_20_Default_ranged_hashELb1EEC2Ev:
.LFB9582:
	pushq	%rbp
	.seh_pushreg	%rbp
	movq	%rsp, %rbp
	.seh_setframe	%rbp, 0
	.seh_endprologue
	movq	%rcx, 16(%rbp)
	nop
	popq	%rbp
	ret
	.seh_endproc
	.section	.text$_ZNSt8__detail15_Hashtable_baseINSt7__cxx1112basic_stringIcSt11char_traitsIcESaIcEEESt4pairIKS6_iENS_10_Select1stESt8equal_toIS6_ESt4hashIS6_ENS_18_Mod_range_hashingENS_20_Default_ranged_hashENS_17_Hashtable_traitsILb1ELb0ELb1EEEEC2Ev,"x"
	.linkonce discard
	.align 2
	.globl	_ZNSt8__detail15_Hashtable_baseINSt7__cxx1112basic_stringIcSt11char_traitsIcESaIcEEESt4pairIKS6_iENS_10_Select1stESt8equal_toIS6_ESt4hashIS6_ENS_18_Mod_range_hashingENS_20_Default_ranged_hashENS_17_Hashtable_traitsILb1ELb0ELb1EEEEC2Ev
	.def	_ZNSt8__detail15_Hashtable_baseINSt7__cxx1112basic_stringIcSt11char_traitsIcESaIcEEESt4pairIKS6_iENS_10_Select1stESt8equal_toIS6_ESt4hashIS6_ENS_18_Mod_range_hashingENS_20_Default_ranged_hashENS_17_Hashtable_traitsILb1ELb0ELb1EEEEC2Ev;	.scl	2;	.type	32;	.endef
	.seh_proc	_ZNSt8__detail15_Hashtable_baseINSt7__cxx1112basic_stringIcSt11char_traitsIcESaIcEEESt4pairIKS6_iENS_10_Select1stESt8equal_toIS6_ESt4hashIS6_ENS_18_Mod_range_hashingENS_20_Default_ranged_hashENS_17_Hashtable_traitsILb1ELb0ELb1EEEEC2Ev
_ZNSt8__detail15_Hashtable_baseINSt7__cxx1112basic_stringIcSt11char_traitsIcESaIcEEESt4pairIKS6_iENS_10_Select1stESt8equal_toIS6_ESt4hashIS6_ENS_18_Mod_range_hashingENS_20_Default_ranged_hashENS_17_Hashtable_traitsILb1ELb0ELb1EEEEC2Ev:
.LFB9584:
	pushq	%rbp
	.seh_pushreg	%rbp
	movq	%rsp, %rbp
	.seh_setframe	%rbp, 0
	subq	$32, %rsp
	.seh_stackalloc	32
	.seh_endprologue
	movq	%rcx, 16(%rbp)
	movq	16(%rbp), %rax
	movq	%rax, %rcx
	call	_ZNSt8__detail15_Hash_code_baseINSt7__cxx1112basic_stringIcSt11char_traitsIcESaIcEEESt4pairIKS6_iENS_10_Select1stESt4hashIS6_ENS_18_Mod_range_hashingENS_20_Default_ranged_hashELb1EEC2Ev
	nop
	addq	$32, %rsp
	popq	%rbp
	ret
	.seh_endproc
	.section	.text$_ZNSt8__detail21_Hashtable_ebo_helperISaINS_10_Hash_nodeISt4pairIKNSt7__cxx1112basic_stringIcSt11char_traitsIcESaIcEEEiELb1EEEELb1EED1Ev,"x"
	.linkonce discard
	.align 2
	.globl	_ZNSt8__detail21_Hashtable_ebo_helperISaINS_10_Hash_nodeISt4pairIKNSt7__cxx1112basic_stringIcSt11char_traitsIcESaIcEEEiELb1EEEELb1EED1Ev
	.def	_ZNSt8__detail21_Hashtable_ebo_helperISaINS_10_Hash_nodeISt4pairIKNSt7__cxx1112basic_stringIcSt11char_traitsIcESaIcEEEiELb1EEEELb1EED1Ev;	.scl	2;	.type	32;	.endef
	.seh_proc	_ZNSt8__detail21_Hashtable_ebo_helperISaINS_10_Hash_nodeISt4pairIKNSt7__cxx1112basic_stringIcSt11char_traitsIcESaIcEEEiELb1EEEELb1EED1Ev
_ZNSt8__detail21_Hashtable_ebo_helperISaINS_10_Hash_nodeISt4pairIKNSt7__cxx1112basic_stringIcSt11char_traitsIcESaIcEEEiELb1EEEELb1EED1Ev:
.LFB9589:
	pushq	%rbp
	.seh_pushreg	%rbp
	movq	%rsp, %rbp
	.seh_setframe	%rbp, 0
	subq	$48, %rsp
	.seh_stackalloc	48
	.seh_endprologue
	movq	%rcx, 16(%rbp)
	movq	16(%rbp), %rax
	movq	%rax, -8(%rbp)
	movq	-8(%rbp), %rax
	movq	%rax, %rcx
	call	_ZNSt15__new_allocatorINSt8__detail10_Hash_nodeISt4pairIKNSt7__cxx1112basic_stringIcSt11char_traitsIcESaIcEEEiELb1EEEED2Ev
	nop
	nop
	addq	$48, %rsp
	popq	%rbp
	ret
	.seh_endproc
	.section	.text$_ZNSt8__detail16_Hashtable_allocISaINS_10_Hash_nodeISt4pairIKNSt7__cxx1112basic_stringIcSt11char_traitsIcESaIcEEEiELb1EEEEEC2Ev,"x"
	.linkonce discard
	.align 2
	.globl	_ZNSt8__detail16_Hashtable_allocISaINS_10_Hash_nodeISt4pairIKNSt7__cxx1112basic_stringIcSt11char_traitsIcESaIcEEEiELb1EEEEEC2Ev
	.def	_ZNSt8__detail16_Hashtable_allocISaINS_10_Hash_nodeISt4pairIKNSt7__cxx1112basic_stringIcSt11char_traitsIcESaIcEEEiELb1EEEEEC2Ev;	.scl	2;	.type	32;	.endef
	.seh_proc	_ZNSt8__detail16_Hashtable_allocISaINS_10_Hash_nodeISt4pairIKNSt7__cxx1112basic_stringIcSt11char_traitsIcESaIcEEEiELb1EEEEEC2Ev
_ZNSt8__detail16_Hashtable_allocISaINS_10_Hash_nodeISt4pairIKNSt7__cxx1112basic_stringIcSt11char_traitsIcESaIcEEEiELb1EEEEEC2Ev:
.LFB9590:
	pushq	%rbp
	.seh_pushreg	%rbp
	movq	%rsp, %rbp
	.seh_setframe	%rbp, 0
	subq	$16, %rsp
	.seh_stackalloc	16
	.seh_endprologue
	movq	%rcx, 16(%rbp)
	movq	16(%rbp), %rax
	movq	%rax, -8(%rbp)
	movq	-8(%rbp), %rax
	movq	%rax, -16(%rbp)
	nop
	nop
	nop
	addq	$16, %rsp
	popq	%rbp
	ret
	.seh_endproc
	.section	.text$_ZNSt8__detail16_Hashtable_allocISaINS_10_Hash_nodeISt4pairIKNSt7__cxx1112basic_stringIcSt11char_traitsIcESaIcEEEiELb1EEEEED2Ev,"x"
	.linkonce discard
	.align 2
	.globl	_ZNSt8__detail16_Hashtable_allocISaINS_10_Hash_nodeISt4pairIKNSt7__cxx1112basic_stringIcSt11char_traitsIcESaIcEEEiELb1EEEEED2Ev
	.def	_ZNSt8__detail16_Hashtable_allocISaINS_10_Hash_nodeISt4pairIKNSt7__cxx1112basic_stringIcSt11char_traitsIcESaIcEEEiELb1EEEEED2Ev;	.scl	2;	.type	32;	.endef
	.seh_proc	_ZNSt8__detail16_Hashtable_allocISaINS_10_Hash_nodeISt4pairIKNSt7__cxx1112basic_stringIcSt11char_traitsIcESaIcEEEiELb1EEEEED2Ev
_ZNSt8__detail16_Hashtable_allocISaINS_10_Hash_nodeISt4pairIKNSt7__cxx1112basic_stringIcSt11char_traitsIcESaIcEEEiELb1EEEEED2Ev:
.LFB9593:
	pushq	%rbp
	.seh_pushreg	%rbp
	movq	%rsp, %rbp
	.seh_setframe	%rbp, 0
	subq	$32, %rsp
	.seh_stackalloc	32
	.seh_endprologue
	movq	%rcx, 16(%rbp)
	movq	16(%rbp), %rax
	movq	%rax, %rcx
	call	_ZNSt8__detail21_Hashtable_ebo_helperISaINS_10_Hash_nodeISt4pairIKNSt7__cxx1112basic_stringIcSt11char_traitsIcESaIcEEEiELb1EEEELb1EED1Ev
	nop
	addq	$32, %rsp
	popq	%rbp
	ret
	.seh_endproc
	.section	.text$_ZNSt10_HashtableINSt7__cxx1112basic_stringIcSt11char_traitsIcESaIcEEESt4pairIKS5_iESaIS8_ENSt8__detail10_Select1stESt8equal_toIS5_ESt4hashIS5_ENSA_18_Mod_range_hashingENSA_20_Default_ranged_hashENSA_20_Prime_rehash_policyENSA_17_Hashtable_traitsILb1ELb0ELb1EEEEC1Ev,"x"
	.linkonce discard
	.align 2
	.globl	_ZNSt10_HashtableINSt7__cxx1112basic_stringIcSt11char_traitsIcESaIcEEESt4pairIKS5_iESaIS8_ENSt8__detail10_Select1stESt8equal_toIS5_ESt4hashIS5_ENSA_18_Mod_range_hashingENSA_20_Default_ranged_hashENSA_20_Prime_rehash_policyENSA_17_Hashtable_traitsILb1ELb0ELb1EEEEC1Ev
	.def	_ZNSt10_HashtableINSt7__cxx1112basic_stringIcSt11char_traitsIcESaIcEEESt4pairIKS5_iESaIS8_ENSt8__detail10_Select1stESt8equal_toIS5_ESt4hashIS5_ENSA_18_Mod_range_hashingENSA_20_Default_ranged_hashENSA_20_Prime_rehash_policyENSA_17_Hashtable_traitsILb1ELb0ELb1EEEEC1Ev;	.scl	2;	.type	32;	.endef
	.seh_proc	_ZNSt10_HashtableINSt7__cxx1112basic_stringIcSt11char_traitsIcESaIcEEESt4pairIKS5_iESaIS8_ENSt8__detail10_Select1stESt8equal_toIS5_ESt4hashIS5_ENSA_18_Mod_range_hashingENSA_20_Default_ranged_hashENSA_20_Prime_rehash_policyENSA_17_Hashtable_traitsILb1ELb0ELb1EEEEC1Ev
_ZNSt10_HashtableINSt7__cxx1112basic_stringIcSt11char_traitsIcESaIcEEESt4pairIKS5_iESaIS8_ENSt8__detail10_Select1stESt8equal_toIS5_ESt4hashIS5_ENSA_18_Mod_range_hashingENSA_20_Default_ranged_hashENSA_20_Prime_rehash_policyENSA_17_Hashtable_traitsILb1ELb0ELb1EEEEC1Ev:
.LFB9596:
	pushq	%rbp
	.seh_pushreg	%rbp
	movq	%rsp, %rbp
	.seh_setframe	%rbp, 0
	subq	$32, %rsp
	.seh_stackalloc	32
	.seh_endprologue
	movq	%rcx, 16(%rbp)
	movq	16(%rbp), %rax
	movq	%rax, %rcx
	call	_ZNSt8__detail15_Hashtable_baseINSt7__cxx1112basic_stringIcSt11char_traitsIcESaIcEEESt4pairIKS6_iENS_10_Select1stESt8equal_toIS6_ESt4hashIS6_ENS_18_Mod_range_hashingENS_20_Default_ranged_hashENS_17_Hashtable_traitsILb1ELb0ELb1EEEEC2Ev
	movq	16(%rbp), %rax
	movq	%rax, %rcx
	call	_ZNSt8__detail16_Hashtable_allocISaINS_10_Hash_nodeISt4pairIKNSt7__cxx1112basic_stringIcSt11char_traitsIcESaIcEEEiELb1EEEEEC2Ev
	movq	16(%rbp), %rax
	leaq	48(%rax), %rdx
	movq	16(%rbp), %rax
	movq	%rdx, (%rax)
	movq	16(%rbp), %rax
	movq	$1, 8(%rax)
	movq	16(%rbp), %rax
	addq	$16, %rax
	movq	%rax, %rcx
	call	_ZNSt8__detail15_Hash_node_baseC1Ev
	movq	16(%rbp), %rax
	movq	$0, 24(%rax)
	movq	16(%rbp), %rax
	addq	$32, %rax
	movss	.LC43(%rip), %xmm1
	movq	%rax, %rcx
	call	_ZNSt8__detail20_Prime_rehash_policyC1Ef
	movq	16(%rbp), %rax
	movq	$0, 48(%rax)
	nop
	addq	$32, %rsp
	popq	%rbp
	ret
	.seh_endproc
	.section	.text$_ZNSt13unordered_mapINSt7__cxx1112basic_stringIcSt11char_traitsIcESaIcEEEiSt4hashIS5_ESt8equal_toIS5_ESaISt4pairIKS5_iEEEC1Ev,"x"
	.linkonce discard
	.align 2
	.globl	_ZNSt13unordered_mapINSt7__cxx1112basic_stringIcSt11char_traitsIcESaIcEEEiSt4hashIS5_ESt8equal_toIS5_ESaISt4pairIKS5_iEEEC1Ev
	.def	_ZNSt13unordered_mapINSt7__cxx1112basic_stringIcSt11char_traitsIcESaIcEEEiSt4hashIS5_ESt8equal_toIS5_ESaISt4pairIKS5_iEEEC1Ev;	.scl	2;	.type	32;	.endef
	.seh_proc	_ZNSt13unordered_mapINSt7__cxx1112basic_stringIcSt11char_traitsIcESaIcEEEiSt4hashIS5_ESt8equal_toIS5_ESaISt4pairIKS5_iEEEC1Ev
_ZNSt13unordered_mapINSt7__cxx1112basic_stringIcSt11char_traitsIcESaIcEEEiSt4hashIS5_ESt8equal_toIS5_ESaISt4pairIKS5_iEEEC1Ev:
.LFB9598:
	pushq	%rbp
	.seh_pushreg	%rbp
	movq	%rsp, %rbp
	.seh_setframe	%rbp, 0
	subq	$32, %rsp
	.seh_stackalloc	32
	.seh_endprologue
	movq	%rcx, 16(%rbp)
	movq	16(%rbp), %rax
	movq	%rax, %rcx
	call	_ZNSt10_HashtableINSt7__cxx1112basic_stringIcSt11char_traitsIcESaIcEEESt4pairIKS5_iESaIS8_ENSt8__detail10_Select1stESt8equal_toIS5_ESt4hashIS5_ENSA_18_Mod_range_hashingENSA_20_Default_ranged_hashENSA_20_Prime_rehash_policyENSA_17_Hashtable_traitsILb1ELb0ELb1EEEEC1Ev
	nop
	addq	$32, %rsp
	popq	%rbp
	ret
	.seh_endproc
	.section	.text$_ZNSt13unordered_mapINSt7__cxx1112basic_stringIcSt11char_traitsIcESaIcEEEiSt4hashIS5_ESt8equal_toIS5_ESaISt4pairIKS5_iEEED1Ev,"x"
	.linkonce discard
	.align 2
	.globl	_ZNSt13unordered_mapINSt7__cxx1112basic_stringIcSt11char_traitsIcESaIcEEEiSt4hashIS5_ESt8equal_toIS5_ESaISt4pairIKS5_iEEED1Ev
	.def	_ZNSt13unordered_mapINSt7__cxx1112basic_stringIcSt11char_traitsIcESaIcEEEiSt4hashIS5_ESt8equal_toIS5_ESaISt4pairIKS5_iEEED1Ev;	.scl	2;	.type	32;	.endef
	.seh_proc	_ZNSt13unordered_mapINSt7__cxx1112basic_stringIcSt11char_traitsIcESaIcEEEiSt4hashIS5_ESt8equal_toIS5_ESaISt4pairIKS5_iEEED1Ev
_ZNSt13unordered_mapINSt7__cxx1112basic_stringIcSt11char_traitsIcESaIcEEEiSt4hashIS5_ESt8equal_toIS5_ESaISt4pairIKS5_iEEED1Ev:
.LFB9601:
	pushq	%rbp
	.seh_pushreg	%rbp
	movq	%rsp, %rbp
	.seh_setframe	%rbp, 0
	subq	$32, %rsp
	.seh_stackalloc	32
	.seh_endprologue
	movq	%rcx, 16(%rbp)
	movq	16(%rbp), %rax
	movq	%rax, %rcx
	call	_ZNSt10_HashtableINSt7__cxx1112basic_stringIcSt11char_traitsIcESaIcEEESt4pairIKS5_iESaIS8_ENSt8__detail10_Select1stESt8equal_toIS5_ESt4hashIS5_ENSA_18_Mod_range_hashingENSA_20_Default_ranged_hashENSA_20_Prime_rehash_policyENSA_17_Hashtable_traitsILb1ELb0ELb1EEEED1Ev
	nop
	addq	$32, %rsp
	popq	%rbp
	ret
	.seh_endproc
	.section	.text$_ZN14KnowledgeGraphC1Ev,"x"
	.linkonce discard
	.align 2
	.globl	_ZN14KnowledgeGraphC1Ev
	.def	_ZN14KnowledgeGraphC1Ev;	.scl	2;	.type	32;	.endef
	.seh_proc	_ZN14KnowledgeGraphC1Ev
_ZN14KnowledgeGraphC1Ev:
.LFB9603:
	pushq	%rbp
	.seh_pushreg	%rbp
	movq	%rsp, %rbp
	.seh_setframe	%rbp, 0
	subq	$32, %rsp
	.seh_stackalloc	32
	.seh_endprologue
	movq	%rcx, 16(%rbp)
	movq	16(%rbp), %rax
	movq	%rax, %rcx
	call	_ZNSt6vectorI4NodeSaIS0_EEC1Ev
	movq	16(%rbp), %rax
	addq	$24, %rax
	movq	%rax, %rcx
	call	_ZNSt13unordered_mapINSt7__cxx1112basic_stringIcSt11char_traitsIcESaIcEEEiSt4hashIS5_ESt8equal_toIS5_ESaISt4pairIKS5_iEEEC1Ev
	nop
	addq	$32, %rsp
	popq	%rbp
	ret
	.seh_endproc
	.section	.text$_ZN14KnowledgeGraphD1Ev,"x"
	.linkonce discard
	.align 2
	.globl	_ZN14KnowledgeGraphD1Ev
	.def	_ZN14KnowledgeGraphD1Ev;	.scl	2;	.type	32;	.endef
	.seh_proc	_ZN14KnowledgeGraphD1Ev
_ZN14KnowledgeGraphD1Ev:
.LFB9606:
	pushq	%rbp
	.seh_pushreg	%rbp
	movq	%rsp, %rbp
	.seh_setframe	%rbp, 0
	subq	$32, %rsp
	.seh_stackalloc	32
	.seh_endprologue
	movq	%rcx, 16(%rbp)
	movq	16(%rbp), %rax
	addq	$24, %rax
	movq	%rax, %rcx
	call	_ZNSt13unordered_mapINSt7__cxx1112basic_stringIcSt11char_traitsIcESaIcEEEiSt4hashIS5_ESt8equal_toIS5_ESaISt4pairIKS5_iEEED1Ev
	movq	16(%rbp), %rax
	movq	%rax, %rcx
	call	_ZNSt6vectorI4NodeSaIS0_EED1Ev
	nop
	addq	$32, %rsp
	popq	%rbp
	ret
	.seh_endproc
	.section	.text$_ZN18SemanticMlfqEngineD1Ev,"x"
	.linkonce discard
	.align 2
	.globl	_ZN18SemanticMlfqEngineD1Ev
	.def	_ZN18SemanticMlfqEngineD1Ev;	.scl	2;	.type	32;	.endef
	.seh_proc	_ZN18SemanticMlfqEngineD1Ev
_ZN18SemanticMlfqEngineD1Ev:
.LFB9609:
	pushq	%rbp
	.seh_pushreg	%rbp
	pushq	%rbx
	.seh_pushreg	%rbx
	subq	$40, %rsp
	.seh_stackalloc	40
	leaq	32(%rsp), %rbp
	.seh_setframe	%rbp, 32
	.seh_endprologue
	movq	%rcx, 32(%rbp)
	movq	32(%rbp), %rax
	testq	%rax, %rax
	je	.L545
	movq	32(%rbp), %rax
	leaq	96(%rax), %rbx
.L546:
	movq	32(%rbp), %rax
	cmpq	%rax, %rbx
	je	.L545
	subq	$32, %rbx
	movq	%rbx, %rcx
	call	_ZNSt14priority_queueI9PathStateSt6vectorIS0_SaIS0_EESt7greaterIS0_EED1Ev
	jmp	.L546
.L545:
	nop
	addq	$40, %rsp
	popq	%rbx
	popq	%rbp
	ret
	.seh_endproc
	.section	.text$_ZN12SearchResultaSEOS_,"x"
	.linkonce discard
	.align 2
	.globl	_ZN12SearchResultaSEOS_
	.def	_ZN12SearchResultaSEOS_;	.scl	2;	.type	32;	.endef
	.seh_proc	_ZN12SearchResultaSEOS_
_ZN12SearchResultaSEOS_:
.LFB9613:
	pushq	%rbp
	.seh_pushreg	%rbp
	movq	%rsp, %rbp
	.seh_setframe	%rbp, 0
	subq	$32, %rsp
	.seh_stackalloc	32
	.seh_endprologue
	movq	%rcx, 16(%rbp)
	movq	%rdx, 24(%rbp)
	movq	24(%rbp), %rdx
	movq	16(%rbp), %rax
	movq	%rax, %rcx
	call	_ZNSt6vectorINSt7__cxx1112basic_stringIcSt11char_traitsIcESaIcEEESaIS5_EEaSEOS7_
	movq	24(%rbp), %rax
	leaq	24(%rax), %rdx
	movq	16(%rbp), %rax
	addq	$24, %rax
	movq	%rax, %rcx
	call	_ZNSt6vectorINSt7__cxx1112basic_stringIcSt11char_traitsIcESaIcEEESaIS5_EEaSEOS7_
	movq	16(%rbp), %rax
	addq	$32, %rsp
	popq	%rbp
	ret
	.seh_endproc
	.section	.text$_ZNSt6chronomiINS_3_V212system_clockENS_8durationIxSt5ratioILx1ELx1000000000EEEES6_EENSt11common_typeIJT0_T1_EE4typeERKNS_10time_pointIT_S8_EERKNSC_ISD_S9_EE,"x"
	.linkonce discard
	.globl	_ZNSt6chronomiINS_3_V212system_clockENS_8durationIxSt5ratioILx1ELx1000000000EEEES6_EENSt11common_typeIJT0_T1_EE4typeERKNS_10time_pointIT_S8_EERKNSC_ISD_S9_EE
	.def	_ZNSt6chronomiINS_3_V212system_clockENS_8durationIxSt5ratioILx1ELx1000000000EEEES6_EENSt11common_typeIJT0_T1_EE4typeERKNS_10time_pointIT_S8_EERKNSC_ISD_S9_EE;	.scl	2;	.type	32;	.endef
	.seh_proc	_ZNSt6chronomiINS_3_V212system_clockENS_8durationIxSt5ratioILx1ELx1000000000EEEES6_EENSt11common_typeIJT0_T1_EE4typeERKNS_10time_pointIT_S8_EERKNSC_ISD_S9_EE
_ZNSt6chronomiINS_3_V212system_clockENS_8durationIxSt5ratioILx1ELx1000000000EEEES6_EENSt11common_typeIJT0_T1_EE4typeERKNS_10time_pointIT_S8_EERKNSC_ISD_S9_EE:
.LFB9615:
	pushq	%rbp
	.seh_pushreg	%rbp
	movq	%rsp, %rbp
	.seh_setframe	%rbp, 0
	subq	$48, %rsp
	.seh_stackalloc	48
	.seh_endprologue
	movq	%rcx, 16(%rbp)
	movq	%rdx, 24(%rbp)
	movq	24(%rbp), %rax
	movq	%rax, %rcx
	call	_ZNKSt6chrono10time_pointINS_3_V212system_clockENS_8durationIxSt5ratioILx1ELx1000000000EEEEE16time_since_epochEv
	movq	%rax, -16(%rbp)
	movq	16(%rbp), %rax
	movq	%rax, %rcx
	call	_ZNKSt6chrono10time_pointINS_3_V212system_clockENS_8durationIxSt5ratioILx1ELx1000000000EEEEE16time_since_epochEv
	movq	%rax, -8(%rbp)
	leaq	-16(%rbp), %rdx
	leaq	-8(%rbp), %rax
	movq	%rax, %rcx
	call	_ZNSt6chronomiIxSt5ratioILx1ELx1000000000EExS2_EENSt11common_typeIJNS_8durationIT_T0_EENS4_IT1_T2_EEEE4typeERKS7_RKSA_
	addq	$48, %rsp
	popq	%rbp
	ret
	.seh_endproc
	.section	.text$_ZNKSt6chrono10time_pointINS_3_V212system_clockENS_8durationIxSt5ratioILx1ELx1000000000EEEEE16time_since_epochEv,"x"
	.linkonce discard
	.align 2
	.globl	_ZNKSt6chrono10time_pointINS_3_V212system_clockENS_8durationIxSt5ratioILx1ELx1000000000EEEEE16time_since_epochEv
	.def	_ZNKSt6chrono10time_pointINS_3_V212system_clockENS_8durationIxSt5ratioILx1ELx1000000000EEEEE16time_since_epochEv;	.scl	2;	.type	32;	.endef
	.seh_proc	_ZNKSt6chrono10time_pointINS_3_V212system_clockENS_8durationIxSt5ratioILx1ELx1000000000EEEEE16time_since_epochEv
_ZNKSt6chrono10time_pointINS_3_V212system_clockENS_8durationIxSt5ratioILx1ELx1000000000EEEEE16time_since_epochEv:
.LFB9616:
	pushq	%rbp
	.seh_pushreg	%rbp
	movq	%rsp, %rbp
	.seh_setframe	%rbp, 0
	.seh_endprologue
	movq	%rcx, 16(%rbp)
	movq	16(%rbp), %rax
	movq	(%rax), %rax
	popq	%rbp
	ret
	.seh_endproc
	.section .rdata,"dr"
.LC49:
	.ascii "query.json\0"
.LC50:
	.ascii "start\0"
.LC51:
	.ascii "budget\0"
.LC52:
	.ascii "smlfq\0"
.LC53:
	.ascii "mode\0"
.LC54:
	.ascii "graph_data.json\0"
.LC55:
	.ascii "source\0"
.LC56:
	.ascii "target\0"
.LC57:
	.ascii "weight\0"
.LC58:
	.ascii "relation\0"
.LC59:
	.ascii "dijkstra\0"
.LC60:
	.ascii "random\0"
.LC61:
	.ascii "collected_nodes\0"
.LC62:
	.ascii "xai_logs\0"
.LC63:
	.ascii "exec_time_ms\0"
.LC64:
	.ascii "space_usage\0"
.LC65:
	.ascii "result.json\0"
	.text
	.globl	main
	.def	main;	.scl	2;	.type	32;	.endef
	.seh_proc	main
main:
.LFB9482:
	pushq	%rbp
	.seh_pushreg	%rbp
	pushq	%rsi
	.seh_pushreg	%rsi
	pushq	%rbx
	.seh_pushreg	%rbx
	subq	$2400, %rsp
	.seh_stackalloc	2400
	leaq	128(%rsp), %rbp
	.seh_setframe	%rbp, 128
	.seh_endprologue
	call	__main
	leaq	.LC49(%rip), %rdx
	leaq	1360(%rbp), %rax
	movl	$8, %r8d
	movq	%rax, %rcx
.LEHB57:
	call	_ZNSt14basic_ifstreamIcSt11char_traitsIcEEC1EPKcSt13_Ios_Openmode
.LEHE57:
	leaq	1360(%rbp), %rax
	movq	%rax, %rcx
	call	_ZNSt14basic_ifstreamIcSt11char_traitsIcEE7is_openEv
	xorl	$1, %eax
	testb	%al, %al
	je	.L554
	movl	$1, %ebx
	jmp	.L555
.L554:
	leaq	1344(%rbp), %rax
	movl	$0, %edx
	movq	%rax, %rcx
	call	_ZN8nlohmann16json_abi_v3_12_010basic_jsonISt3mapSt6vectorNSt7__cxx1112basic_stringIcSt11char_traitsIcESaIcEEEbxydSaNS0_14adl_serializerES3_IhSaIhEEvEC1EDn
	leaq	1344(%rbp), %rdx
	leaq	1360(%rbp), %rax
	movq	%rax, %rcx
.LEHB58:
	call	_ZN8nlohmann16json_abi_v3_12_0rsERSiRNS0_10basic_jsonISt3mapSt6vectorNSt7__cxx1112basic_stringIcSt11char_traitsIcESaIcEEEbxydSaNS0_14adl_serializerES4_IhSaIhEEvEE
	leaq	.LC50(%rip), %rdx
	leaq	1344(%rbp), %rax
	movq	%rax, %rcx
	call	_ZN8nlohmann16json_abi_v3_12_010basic_jsonISt3mapSt6vectorNSt7__cxx1112basic_stringIcSt11char_traitsIcESaIcEEEbxydSaNS0_14adl_serializerES3_IhSaIhEEvEixIKcEERSD_PT_
	movq	%rax, %rdx
	leaq	1312(%rbp), %rax
	movq	%rax, %rcx
	call	_ZNK8nlohmann16json_abi_v3_12_010basic_jsonISt3mapSt6vectorNSt7__cxx1112basic_stringIcSt11char_traitsIcESaIcEEEbxydSaNS0_14adl_serializerES3_IhSaIhEEvEcvT_IS9_Li0EEEv
.LEHE58:
	leaq	.LC51(%rip), %rdx
	leaq	1344(%rbp), %rax
	movq	%rax, %rcx
.LEHB59:
	call	_ZN8nlohmann16json_abi_v3_12_010basic_jsonISt3mapSt6vectorNSt7__cxx1112basic_stringIcSt11char_traitsIcESaIcEEEbxydSaNS0_14adl_serializerES3_IhSaIhEEvEixIKcEERSD_PT_
	movq	%rax, %rcx
	call	_ZNK8nlohmann16json_abi_v3_12_010basic_jsonISt3mapSt6vectorNSt7__cxx1112basic_stringIcSt11char_traitsIcESaIcEEEbxydSaNS0_14adl_serializerES3_IhSaIhEEvEcvT_IiLi0EEEv
	movl	%eax, 2268(%rbp)
	leaq	1280(%rbp), %rax
	leaq	.LC52(%rip), %r8
	leaq	.LC53(%rip), %rcx
	leaq	1344(%rbp), %rdx
	movq	%r8, %r9
	movq	%rcx, %r8
	movq	%rax, %rcx
	call	_ZNK8nlohmann16json_abi_v3_12_010basic_jsonISt3mapSt6vectorNSt7__cxx1112basic_stringIcSt11char_traitsIcESaIcEEEbxydSaNS0_14adl_serializerES3_IhSaIhEEvE5valueIRA6_KcRA5_SF_S9_Li0EEET1_OT0_OT_
.LEHE59:
	leaq	1200(%rbp), %rax
	movq	%rax, %rcx
	call	_ZN14KnowledgeGraphC1Ev
	leaq	.LC54(%rip), %rdx
	leaq	704(%rbp), %rax
	movl	$8, %r8d
	movq	%rax, %rcx
.LEHB60:
	call	_ZNSt14basic_ifstreamIcSt11char_traitsIcEEC1EPKcSt13_Ios_Openmode
.LEHE60:
	leaq	688(%rbp), %rax
	movl	$0, %edx
	movq	%rax, %rcx
	call	_ZN8nlohmann16json_abi_v3_12_010basic_jsonISt3mapSt6vectorNSt7__cxx1112basic_stringIcSt11char_traitsIcESaIcEEEbxydSaNS0_14adl_serializerES3_IhSaIhEEvEC1EDn
	leaq	688(%rbp), %rdx
	leaq	704(%rbp), %rax
	movq	%rax, %rcx
.LEHB61:
	call	_ZN8nlohmann16json_abi_v3_12_0rsERSiRNS0_10basic_jsonISt3mapSt6vectorNSt7__cxx1112basic_stringIcSt11char_traitsIcESaIcEEEbxydSaNS0_14adl_serializerES4_IhSaIhEEvEE
	leaq	688(%rbp), %rax
	movq	%rax, 2256(%rbp)
	leaq	-80(%rbp), %rax
	movq	2256(%rbp), %rdx
	movq	%rax, %rcx
	call	_ZN8nlohmann16json_abi_v3_12_010basic_jsonISt3mapSt6vectorNSt7__cxx1112basic_stringIcSt11char_traitsIcESaIcEEEbxydSaNS0_14adl_serializerES3_IhSaIhEEvE5beginEv
	leaq	-48(%rbp), %rax
	movq	2256(%rbp), %rdx
	movq	%rax, %rcx
	call	_ZN8nlohmann16json_abi_v3_12_010basic_jsonISt3mapSt6vectorNSt7__cxx1112basic_stringIcSt11char_traitsIcESaIcEEEbxydSaNS0_14adl_serializerES3_IhSaIhEEvE3endEv
	jmp	.L556
.L557:
	leaq	-80(%rbp), %rax
	movq	%rax, %rcx
	call	_ZNK8nlohmann16json_abi_v3_12_06detail9iter_implINS0_10basic_jsonISt3mapSt6vectorNSt7__cxx1112basic_stringIcSt11char_traitsIcESaIcEEEbxydSaNS0_14adl_serializerES5_IhSaIhEEvEEEdeEv
	movq	%rax, 2240(%rbp)
	leaq	.LC55(%rip), %rdx
	movq	2240(%rbp), %rax
	movq	%rax, %rcx
	call	_ZNK8nlohmann16json_abi_v3_12_010basic_jsonISt3mapSt6vectorNSt7__cxx1112basic_stringIcSt11char_traitsIcESaIcEEEbxydSaNS0_14adl_serializerES3_IhSaIhEEvEixIKcEERKSD_PT_
	movq	%rax, %rdx
	leaq	1856(%rbp), %rax
	movq	%rax, %rcx
	call	_ZNK8nlohmann16json_abi_v3_12_010basic_jsonISt3mapSt6vectorNSt7__cxx1112basic_stringIcSt11char_traitsIcESaIcEEEbxydSaNS0_14adl_serializerES3_IhSaIhEEvEcvT_IS9_Li0EEEv
.LEHE61:
	leaq	1856(%rbp), %rdx
	leaq	1200(%rbp), %rax
	movq	%rax, %rcx
.LEHB62:
	call	_ZN14KnowledgeGraph15get_or_add_nodeENSt7__cxx1112basic_stringIcSt11char_traitsIcESaIcEEE
.LEHE62:
	movl	%eax, 2236(%rbp)
	leaq	1856(%rbp), %rax
	movq	%rax, %rcx
	call	_ZNSt7__cxx1112basic_stringIcSt11char_traitsIcESaIcEED1Ev
	leaq	.LC56(%rip), %rdx
	movq	2240(%rbp), %rax
	movq	%rax, %rcx
.LEHB63:
	call	_ZNK8nlohmann16json_abi_v3_12_010basic_jsonISt3mapSt6vectorNSt7__cxx1112basic_stringIcSt11char_traitsIcESaIcEEEbxydSaNS0_14adl_serializerES3_IhSaIhEEvEixIKcEERKSD_PT_
	movq	%rax, %rdx
	leaq	1888(%rbp), %rax
	movq	%rax, %rcx
	call	_ZNK8nlohmann16json_abi_v3_12_010basic_jsonISt3mapSt6vectorNSt7__cxx1112basic_stringIcSt11char_traitsIcESaIcEEEbxydSaNS0_14adl_serializerES3_IhSaIhEEvEcvT_IS9_Li0EEEv
.LEHE63:
	leaq	1888(%rbp), %rdx
	leaq	1200(%rbp), %rax
	movq	%rax, %rcx
.LEHB64:
	call	_ZN14KnowledgeGraph15get_or_add_nodeENSt7__cxx1112basic_stringIcSt11char_traitsIcESaIcEEE
.LEHE64:
	movl	%eax, 2232(%rbp)
	leaq	1888(%rbp), %rax
	movq	%rax, %rcx
	call	_ZNSt7__cxx1112basic_stringIcSt11char_traitsIcESaIcEED1Ev
	movl	2236(%rbp), %eax
	movslq	%eax, %rdx
	leaq	1200(%rbp), %rax
	movq	%rax, %rcx
	call	_ZNSt6vectorI4NodeSaIS0_EEixEy
	movq	%rax, %rbx
	leaq	.LC57(%rip), %rdx
	movq	2240(%rbp), %rax
	movq	%rax, %rcx
.LEHB65:
	call	_ZNK8nlohmann16json_abi_v3_12_010basic_jsonISt3mapSt6vectorNSt7__cxx1112basic_stringIcSt11char_traitsIcESaIcEEEbxydSaNS0_14adl_serializerES3_IhSaIhEEvEixIKcEERKSD_PT_
	movq	%rax, %rcx
	call	_ZNK8nlohmann16json_abi_v3_12_010basic_jsonISt3mapSt6vectorNSt7__cxx1112basic_stringIcSt11char_traitsIcESaIcEEEbxydSaNS0_14adl_serializerES3_IhSaIhEEvEcvT_IfLi0EEEv
	movd	%xmm0, %esi
	leaq	.LC58(%rip), %rdx
	movq	2240(%rbp), %rax
	movq	%rax, %rcx
	call	_ZNK8nlohmann16json_abi_v3_12_010basic_jsonISt3mapSt6vectorNSt7__cxx1112basic_stringIcSt11char_traitsIcESaIcEEEbxydSaNS0_14adl_serializerES3_IhSaIhEEvEixIKcEERKSD_PT_
	movq	%rax, %rdx
	leaq	1920(%rbp), %rax
	movq	%rax, %rcx
	call	_ZNK8nlohmann16json_abi_v3_12_010basic_jsonISt3mapSt6vectorNSt7__cxx1112basic_stringIcSt11char_traitsIcESaIcEEEbxydSaNS0_14adl_serializerES3_IhSaIhEEvEcvT_IS9_Li0EEEv
.LEHE65:
	leaq	1920(%rbp), %rdx
	movl	2232(%rbp), %eax
	movd	%esi, %xmm3
	movq	%rdx, %r8
	movl	%eax, %edx
	movq	%rbx, %rcx
.LEHB66:
	call	_ZN4Node8add_edgeEiNSt7__cxx1112basic_stringIcSt11char_traitsIcESaIcEEEf
.LEHE66:
	leaq	1920(%rbp), %rax
	movq	%rax, %rcx
	call	_ZNSt7__cxx1112basic_stringIcSt11char_traitsIcESaIcEED1Ev
	leaq	-80(%rbp), %rax
	movq	%rax, %rcx
.LEHB67:
	call	_ZN8nlohmann16json_abi_v3_12_06detail9iter_implINS0_10basic_jsonISt3mapSt6vectorNSt7__cxx1112basic_stringIcSt11char_traitsIcESaIcEEEbxydSaNS0_14adl_serializerES5_IhSaIhEEvEEEppEv
.L556:
	leaq	-48(%rbp), %rdx
	leaq	-80(%rbp), %rax
	movq	%rax, %rcx
	call	_ZNK8nlohmann16json_abi_v3_12_06detail9iter_implINS0_10basic_jsonISt3mapSt6vectorNSt7__cxx1112basic_stringIcSt11char_traitsIcESaIcEEEbxydSaNS0_14adl_serializerES5_IhSaIhEEvEEEneISG_LDnEEEbRKT_
	testb	%al, %al
	jne	.L557
	leaq	1200(%rbp), %rax
	addq	$24, %rax
	movq	%rax, %rcx
	call	_ZNSt13unordered_mapINSt7__cxx1112basic_stringIcSt11char_traitsIcESaIcEEEiSt4hashIS5_ESt8equal_toIS5_ESaISt4pairIKS5_iEEE3endEv
	movq	%rax, 1952(%rbp)
	leaq	1312(%rbp), %rax
	leaq	1200(%rbp), %rdx
	leaq	24(%rdx), %rcx
	movq	%rax, %rdx
	call	_ZNSt13unordered_mapINSt7__cxx1112basic_stringIcSt11char_traitsIcESaIcEEEiSt4hashIS5_ESt8equal_toIS5_ESaISt4pairIKS5_iEEE4findERSB_
	movq	%rax, 1960(%rbp)
	leaq	1952(%rbp), %rdx
	leaq	1960(%rbp), %rax
	movq	%rax, %rcx
	call	_ZNSt8__detaileqERKNS_14_Node_iteratorISt4pairIKNSt7__cxx1112basic_stringIcSt11char_traitsIcESaIcEEEiELb0ELb1EEESC_
	testb	%al, %al
	je	.L558
	movl	$1, %ebx
	jmp	.L559
.L558:
	leaq	1312(%rbp), %rax
	leaq	1200(%rbp), %rdx
	leaq	24(%rdx), %rcx
	movq	%rax, %rdx
	call	_ZNSt13unordered_mapINSt7__cxx1112basic_stringIcSt11char_traitsIcESaIcEEEiSt4hashIS5_ESt8equal_toIS5_ESaISt4pairIKS5_iEEEixERSB_
.LEHE67:
	movl	(%rax), %eax
	movl	%eax, 2252(%rbp)
	leaq	1200(%rbp), %rdx
	leaq	560(%rbp), %rax
	movq	%rax, %rcx
	call	_ZN18SemanticMlfqEngineC1ERSt6vectorI4NodeSaIS1_EE
	leaq	512(%rbp), %rax
	movq	%rax, %rcx
	call	_ZN12SearchResultC1Ev
	call	_ZNSt6chrono3_V212system_clock3nowEv
	movq	%rax, 504(%rbp)
	leaq	.LC59(%rip), %rdx
	leaq	1280(%rbp), %rax
	movq	%rax, %rcx
.LEHB68:
	call	_ZSteqIcSt11char_traitsIcESaIcEEbRKNSt7__cxx1112basic_stringIT_T0_T1_EEPKS5_
	testb	%al, %al
	je	.L560
	leaq	1968(%rbp), %rax
	movl	2268(%rbp), %r8d
	movl	2252(%rbp), %ecx
	leaq	560(%rbp), %rdx
	movl	%r8d, %r9d
	movl	%ecx, %r8d
	movq	%rax, %rcx
	call	_ZN18SemanticMlfqEngine14SearchDijkstraEii
	leaq	1968(%rbp), %rdx
	leaq	512(%rbp), %rax
	movq	%rax, %rcx
	call	_ZN12SearchResultaSEOS_
	leaq	1968(%rbp), %rax
	movq	%rax, %rcx
	call	_ZN12SearchResultD1Ev
	jmp	.L561
.L560:
	leaq	.LC60(%rip), %rdx
	leaq	1280(%rbp), %rax
	movq	%rax, %rcx
	call	_ZSteqIcSt11char_traitsIcESaIcEEbRKNSt7__cxx1112basic_stringIT_T0_T1_EEPKS5_
	testb	%al, %al
	je	.L562
	leaq	2016(%rbp), %rax
	movl	2268(%rbp), %r8d
	movl	2252(%rbp), %ecx
	leaq	560(%rbp), %rdx
	movl	%r8d, %r9d
	movl	%ecx, %r8d
	movq	%rax, %rcx
	call	_ZN18SemanticMlfqEngine16SearchRandomWalkEii
	leaq	2016(%rbp), %rdx
	leaq	512(%rbp), %rax
	movq	%rax, %rcx
	call	_ZN12SearchResultaSEOS_
	leaq	2016(%rbp), %rax
	movq	%rax, %rcx
	call	_ZN12SearchResultD1Ev
	jmp	.L561
.L562:
	leaq	2064(%rbp), %rax
	movl	2268(%rbp), %r8d
	movl	2252(%rbp), %ecx
	leaq	560(%rbp), %rdx
	movl	%r8d, %r9d
	movl	%ecx, %r8d
	movq	%rax, %rcx
	call	_ZN18SemanticMlfqEngine6SearchEii
	leaq	2064(%rbp), %rdx
	leaq	512(%rbp), %rax
	movq	%rax, %rcx
	call	_ZN12SearchResultaSEOS_
	leaq	2064(%rbp), %rax
	movq	%rax, %rcx
	call	_ZN12SearchResultD1Ev
.L561:
	call	_ZNSt6chrono3_V212system_clock3nowEv
	movq	%rax, 496(%rbp)
	leaq	504(%rbp), %rdx
	leaq	496(%rbp), %rax
	movq	%rax, %rcx
	call	_ZNSt6chronomiINS_3_V212system_clockENS_8durationIxSt5ratioILx1ELx1000000000EEEES6_EENSt11common_typeIJT0_T1_EE4typeERKNS_10time_pointIT_S8_EERKNSC_ISD_S9_EE
	movq	%rax, 2120(%rbp)
	leaq	2120(%rbp), %rdx
	leaq	2112(%rbp), %rax
	movq	%rax, %rcx
	call	_ZNSt6chrono8durationIdSt5ratioILx1ELx1000EEEC1IxS1_ILx1ELx1000000000EEvEERKNS0_IT_T0_EE
.LEHE68:
	leaq	2112(%rbp), %rax
	movq	%rax, %rcx
	call	_ZNKSt6chrono8durationIdSt5ratioILx1ELx1000EEE5countEv
	movq	%xmm0, %rax
	movq	%rax, 488(%rbp)
	leaq	512(%rbp), %rax
	movq	%rax, %rcx
	call	_ZNKSt6vectorINSt7__cxx1112basic_stringIcSt11char_traitsIcESaIcEEESaIS5_EE4sizeEv
	movl	%eax, %ebx
	leaq	512(%rbp), %rax
	addq	$24, %rax
	movq	%rax, %rcx
	call	_ZNKSt6vectorINSt7__cxx1112basic_stringIcSt11char_traitsIcESaIcEEESaIS5_EE4sizeEv
	addl	%ebx, %eax
	movl	%eax, 484(%rbp)
	leaq	464(%rbp), %rax
	movl	$0, %edx
	movq	%rax, %rcx
	call	_ZN8nlohmann16json_abi_v3_12_010basic_jsonISt3mapSt6vectorNSt7__cxx1112basic_stringIcSt11char_traitsIcESaIcEEEbxydSaNS0_14adl_serializerES3_IhSaIhEEvEC1EDn
	leaq	512(%rbp), %rdx
	leaq	2128(%rbp), %rax
	movq	%rax, %rcx
.LEHB69:
	call	_ZN8nlohmann16json_abi_v3_12_010basic_jsonISt3mapSt6vectorNSt7__cxx1112basic_stringIcSt11char_traitsIcESaIcEEEbxydSaNS0_14adl_serializerES3_IhSaIhEEvEC1IRS3_IS9_SaIS9_EESG_Li0EEEOT_
.LEHE69:
	leaq	.LC61(%rip), %rdx
	leaq	464(%rbp), %rax
	movq	%rax, %rcx
.LEHB70:
	call	_ZN8nlohmann16json_abi_v3_12_010basic_jsonISt3mapSt6vectorNSt7__cxx1112basic_stringIcSt11char_traitsIcESaIcEEEbxydSaNS0_14adl_serializerES3_IhSaIhEEvEixIKcEERSD_PT_
.LEHE70:
	movq	%rax, %rcx
	leaq	2128(%rbp), %rax
	movq	%rax, %rdx
	call	_ZN8nlohmann16json_abi_v3_12_010basic_jsonISt3mapSt6vectorNSt7__cxx1112basic_stringIcSt11char_traitsIcESaIcEEEbxydSaNS0_14adl_serializerES3_IhSaIhEEvEaSESD_
	leaq	2128(%rbp), %rax
	movq	%rax, %rcx
	call	_ZN8nlohmann16json_abi_v3_12_010basic_jsonISt3mapSt6vectorNSt7__cxx1112basic_stringIcSt11char_traitsIcESaIcEEEbxydSaNS0_14adl_serializerES3_IhSaIhEEvED1Ev
	leaq	512(%rbp), %rax
	leaq	24(%rax), %rdx
	leaq	2144(%rbp), %rax
	movq	%rax, %rcx
.LEHB71:
	call	_ZN8nlohmann16json_abi_v3_12_010basic_jsonISt3mapSt6vectorNSt7__cxx1112basic_stringIcSt11char_traitsIcESaIcEEEbxydSaNS0_14adl_serializerES3_IhSaIhEEvEC1IRS3_IS9_SaIS9_EESG_Li0EEEOT_
.LEHE71:
	leaq	.LC62(%rip), %rdx
	leaq	464(%rbp), %rax
	movq	%rax, %rcx
.LEHB72:
	call	_ZN8nlohmann16json_abi_v3_12_010basic_jsonISt3mapSt6vectorNSt7__cxx1112basic_stringIcSt11char_traitsIcESaIcEEEbxydSaNS0_14adl_serializerES3_IhSaIhEEvEixIKcEERSD_PT_
.LEHE72:
	movq	%rax, %rcx
	leaq	2144(%rbp), %rax
	movq	%rax, %rdx
	call	_ZN8nlohmann16json_abi_v3_12_010basic_jsonISt3mapSt6vectorNSt7__cxx1112basic_stringIcSt11char_traitsIcESaIcEEEbxydSaNS0_14adl_serializerES3_IhSaIhEEvEaSESD_
	leaq	2144(%rbp), %rax
	movq	%rax, %rcx
	call	_ZN8nlohmann16json_abi_v3_12_010basic_jsonISt3mapSt6vectorNSt7__cxx1112basic_stringIcSt11char_traitsIcESaIcEEEbxydSaNS0_14adl_serializerES3_IhSaIhEEvED1Ev
	leaq	488(%rbp), %rdx
	leaq	2160(%rbp), %rax
	movq	%rax, %rcx
	call	_ZN8nlohmann16json_abi_v3_12_010basic_jsonISt3mapSt6vectorNSt7__cxx1112basic_stringIcSt11char_traitsIcESaIcEEEbxydSaNS0_14adl_serializerES3_IhSaIhEEvEC1IRddLi0EEEOT_
	leaq	.LC63(%rip), %rdx
	leaq	464(%rbp), %rax
	movq	%rax, %rcx
.LEHB73:
	call	_ZN8nlohmann16json_abi_v3_12_010basic_jsonISt3mapSt6vectorNSt7__cxx1112basic_stringIcSt11char_traitsIcESaIcEEEbxydSaNS0_14adl_serializerES3_IhSaIhEEvEixIKcEERSD_PT_
.LEHE73:
	movq	%rax, %rcx
	leaq	2160(%rbp), %rax
	movq	%rax, %rdx
	call	_ZN8nlohmann16json_abi_v3_12_010basic_jsonISt3mapSt6vectorNSt7__cxx1112basic_stringIcSt11char_traitsIcESaIcEEEbxydSaNS0_14adl_serializerES3_IhSaIhEEvEaSESD_
	leaq	2160(%rbp), %rax
	movq	%rax, %rcx
	call	_ZN8nlohmann16json_abi_v3_12_010basic_jsonISt3mapSt6vectorNSt7__cxx1112basic_stringIcSt11char_traitsIcESaIcEEEbxydSaNS0_14adl_serializerES3_IhSaIhEEvED1Ev
	leaq	484(%rbp), %rdx
	leaq	2176(%rbp), %rax
	movq	%rax, %rcx
	call	_ZN8nlohmann16json_abi_v3_12_010basic_jsonISt3mapSt6vectorNSt7__cxx1112basic_stringIcSt11char_traitsIcESaIcEEEbxydSaNS0_14adl_serializerES3_IhSaIhEEvEC1IRiiLi0EEEOT_
	leaq	.LC64(%rip), %rdx
	leaq	464(%rbp), %rax
	movq	%rax, %rcx
.LEHB74:
	call	_ZN8nlohmann16json_abi_v3_12_010basic_jsonISt3mapSt6vectorNSt7__cxx1112basic_stringIcSt11char_traitsIcESaIcEEEbxydSaNS0_14adl_serializerES3_IhSaIhEEvEixIKcEERSD_PT_
.LEHE74:
	movq	%rax, %rcx
	leaq	2176(%rbp), %rax
	movq	%rax, %rdx
	call	_ZN8nlohmann16json_abi_v3_12_010basic_jsonISt3mapSt6vectorNSt7__cxx1112basic_stringIcSt11char_traitsIcESaIcEEEbxydSaNS0_14adl_serializerES3_IhSaIhEEvEaSESD_
	leaq	2176(%rbp), %rax
	movq	%rax, %rcx
	call	_ZN8nlohmann16json_abi_v3_12_010basic_jsonISt3mapSt6vectorNSt7__cxx1112basic_stringIcSt11char_traitsIcESaIcEEEbxydSaNS0_14adl_serializerES3_IhSaIhEEvED1Ev
	leaq	.LC65(%rip), %rdx
	leaq	-16(%rbp), %rax
	movl	$16, %r8d
	movq	%rax, %rcx
.LEHB75:
	call	_ZNSt14basic_ofstreamIcSt11char_traitsIcEEC1EPKcSt13_Ios_Openmode
.LEHE75:
	leaq	2192(%rbp), %rax
	leaq	464(%rbp), %rdx
	movl	$0, 40(%rsp)
	movl	$0, 32(%rsp)
	movl	$32, %r9d
	movl	$4, %r8d
	movq	%rax, %rcx
.LEHB76:
	call	_ZNK8nlohmann16json_abi_v3_12_010basic_jsonISt3mapSt6vectorNSt7__cxx1112basic_stringIcSt11char_traitsIcESaIcEEEbxydSaNS0_14adl_serializerES3_IhSaIhEEvE4dumpEicbNS0_6detail15error_handler_tE
.LEHE76:
	leaq	2192(%rbp), %rdx
	leaq	-16(%rbp), %rax
	movq	%rax, %rcx
.LEHB77:
	call	_ZStlsIcSt11char_traitsIcESaIcEERSt13basic_ostreamIT_T0_ES7_RKNSt7__cxx1112basic_stringIS4_S5_T1_EE
.LEHE77:
	leaq	2192(%rbp), %rax
	movq	%rax, %rcx
	call	_ZNSt7__cxx1112basic_stringIcSt11char_traitsIcESaIcEED1Ev
	movl	$0, %ebx
	leaq	-16(%rbp), %rax
	movq	%rax, %rcx
	call	_ZNSt14basic_ofstreamIcSt11char_traitsIcEED1Ev
	leaq	464(%rbp), %rax
	movq	%rax, %rcx
	call	_ZN8nlohmann16json_abi_v3_12_010basic_jsonISt3mapSt6vectorNSt7__cxx1112basic_stringIcSt11char_traitsIcESaIcEEEbxydSaNS0_14adl_serializerES3_IhSaIhEEvED1Ev
	leaq	512(%rbp), %rax
	movq	%rax, %rcx
	call	_ZN12SearchResultD1Ev
	leaq	560(%rbp), %rax
	movq	%rax, %rcx
	call	_ZN18SemanticMlfqEngineD1Ev
.L559:
	leaq	688(%rbp), %rax
	movq	%rax, %rcx
	call	_ZN8nlohmann16json_abi_v3_12_010basic_jsonISt3mapSt6vectorNSt7__cxx1112basic_stringIcSt11char_traitsIcESaIcEEEbxydSaNS0_14adl_serializerES3_IhSaIhEEvED1Ev
	leaq	704(%rbp), %rax
	movq	%rax, %rcx
	call	_ZNSt14basic_ifstreamIcSt11char_traitsIcEED1Ev
	leaq	1200(%rbp), %rax
	movq	%rax, %rcx
	call	_ZN14KnowledgeGraphD1Ev
	leaq	1280(%rbp), %rax
	movq	%rax, %rcx
	call	_ZNSt7__cxx1112basic_stringIcSt11char_traitsIcESaIcEED1Ev
	leaq	1312(%rbp), %rax
	movq	%rax, %rcx
	call	_ZNSt7__cxx1112basic_stringIcSt11char_traitsIcESaIcEED1Ev
	leaq	1344(%rbp), %rax
	movq	%rax, %rcx
	call	_ZN8nlohmann16json_abi_v3_12_010basic_jsonISt3mapSt6vectorNSt7__cxx1112basic_stringIcSt11char_traitsIcESaIcEEEbxydSaNS0_14adl_serializerES3_IhSaIhEEvED1Ev
.L555:
	leaq	1360(%rbp), %rax
	movq	%rax, %rcx
	call	_ZNSt14basic_ifstreamIcSt11char_traitsIcEED1Ev
	movl	%ebx, %eax
	jmp	.L594
.L583:
	movq	%rax, %rbx
	leaq	1856(%rbp), %rax
	movq	%rax, %rcx
	call	_ZNSt7__cxx1112basic_stringIcSt11char_traitsIcESaIcEED1Ev
	jmp	.L565
.L584:
	movq	%rax, %rbx
	leaq	1888(%rbp), %rax
	movq	%rax, %rcx
	call	_ZNSt7__cxx1112basic_stringIcSt11char_traitsIcESaIcEED1Ev
	jmp	.L565
.L585:
	movq	%rax, %rbx
	leaq	1920(%rbp), %rax
	movq	%rax, %rcx
	call	_ZNSt7__cxx1112basic_stringIcSt11char_traitsIcESaIcEED1Ev
	jmp	.L565
.L587:
	movq	%rax, %rbx
	leaq	2128(%rbp), %rax
	movq	%rax, %rcx
	call	_ZN8nlohmann16json_abi_v3_12_010basic_jsonISt3mapSt6vectorNSt7__cxx1112basic_stringIcSt11char_traitsIcESaIcEEEbxydSaNS0_14adl_serializerES3_IhSaIhEEvED1Ev
	jmp	.L569
.L589:
	movq	%rax, %rbx
	leaq	2144(%rbp), %rax
	movq	%rax, %rcx
	call	_ZN8nlohmann16json_abi_v3_12_010basic_jsonISt3mapSt6vectorNSt7__cxx1112basic_stringIcSt11char_traitsIcESaIcEEEbxydSaNS0_14adl_serializerES3_IhSaIhEEvED1Ev
	jmp	.L569
.L590:
	movq	%rax, %rbx
	leaq	2160(%rbp), %rax
	movq	%rax, %rcx
	call	_ZN8nlohmann16json_abi_v3_12_010basic_jsonISt3mapSt6vectorNSt7__cxx1112basic_stringIcSt11char_traitsIcESaIcEEEbxydSaNS0_14adl_serializerES3_IhSaIhEEvED1Ev
	jmp	.L569
.L591:
	movq	%rax, %rbx
	leaq	2176(%rbp), %rax
	movq	%rax, %rcx
	call	_ZN8nlohmann16json_abi_v3_12_010basic_jsonISt3mapSt6vectorNSt7__cxx1112basic_stringIcSt11char_traitsIcESaIcEEEbxydSaNS0_14adl_serializerES3_IhSaIhEEvED1Ev
	jmp	.L569
.L593:
	movq	%rax, %rbx
	leaq	2192(%rbp), %rax
	movq	%rax, %rcx
	call	_ZNSt7__cxx1112basic_stringIcSt11char_traitsIcESaIcEED1Ev
	jmp	.L574
.L592:
	movq	%rax, %rbx
.L574:
	leaq	-16(%rbp), %rax
	movq	%rax, %rcx
	call	_ZNSt14basic_ofstreamIcSt11char_traitsIcEED1Ev
	jmp	.L569
.L588:
	movq	%rax, %rbx
.L569:
	leaq	464(%rbp), %rax
	movq	%rax, %rcx
	call	_ZN8nlohmann16json_abi_v3_12_010basic_jsonISt3mapSt6vectorNSt7__cxx1112basic_stringIcSt11char_traitsIcESaIcEEEbxydSaNS0_14adl_serializerES3_IhSaIhEEvED1Ev
	jmp	.L575
.L586:
	movq	%rax, %rbx
.L575:
	leaq	512(%rbp), %rax
	movq	%rax, %rcx
	call	_ZN12SearchResultD1Ev
	leaq	560(%rbp), %rax
	movq	%rax, %rcx
	call	_ZN18SemanticMlfqEngineD1Ev
	jmp	.L565
.L582:
	movq	%rax, %rbx
.L565:
	leaq	688(%rbp), %rax
	movq	%rax, %rcx
	call	_ZN8nlohmann16json_abi_v3_12_010basic_jsonISt3mapSt6vectorNSt7__cxx1112basic_stringIcSt11char_traitsIcESaIcEEEbxydSaNS0_14adl_serializerES3_IhSaIhEEvED1Ev
	leaq	704(%rbp), %rax
	movq	%rax, %rcx
	call	_ZNSt14basic_ifstreamIcSt11char_traitsIcEED1Ev
	jmp	.L576
.L581:
	movq	%rax, %rbx
.L576:
	leaq	1200(%rbp), %rax
	movq	%rax, %rcx
	call	_ZN14KnowledgeGraphD1Ev
	leaq	1280(%rbp), %rax
	movq	%rax, %rcx
	call	_ZNSt7__cxx1112basic_stringIcSt11char_traitsIcESaIcEED1Ev
	jmp	.L577
.L580:
	movq	%rax, %rbx
.L577:
	leaq	1312(%rbp), %rax
	movq	%rax, %rcx
	call	_ZNSt7__cxx1112basic_stringIcSt11char_traitsIcESaIcEED1Ev
	jmp	.L578
.L579:
	movq	%rax, %rbx
.L578:
	leaq	1344(%rbp), %rax
	movq	%rax, %rcx
	call	_ZN8nlohmann16json_abi_v3_12_010basic_jsonISt3mapSt6vectorNSt7__cxx1112basic_stringIcSt11char_traitsIcESaIcEEEbxydSaNS0_14adl_serializerES3_IhSaIhEEvED1Ev
	leaq	1360(%rbp), %rax
	movq	%rax, %rcx
	call	_ZNSt14basic_ifstreamIcSt11char_traitsIcEED1Ev
	movq	%rbx, %rax
	movq	%rax, %rcx
.LEHB78:
	call	_Unwind_Resume
.LEHE78:
.L594:
	addq	$2400, %rsp
	popq	%rbx
	popq	%rsi
	popq	%rbp
	ret
	.seh_handler	__gxx_personality_seh0, @unwind, @except
	.seh_handlerdata
.LLSDA9482:
	.byte	0xff
	.byte	0xff
	.byte	0x1
	.uleb128 .LLSDACSE9482-.LLSDACSB9482
.LLSDACSB9482:
	.uleb128 .LEHB57-.LFB9482
	.uleb128 .LEHE57-.LEHB57
	.uleb128 0
	.uleb128 0
	.uleb128 .LEHB58-.LFB9482
	.uleb128 .LEHE58-.LEHB58
	.uleb128 .L579-.LFB9482
	.uleb128 0
	.uleb128 .LEHB59-.LFB9482
	.uleb128 .LEHE59-.LEHB59
	.uleb128 .L580-.LFB9482
	.uleb128 0
	.uleb128 .LEHB60-.LFB9482
	.uleb128 .LEHE60-.LEHB60
	.uleb128 .L581-.LFB9482
	.uleb128 0
	.uleb128 .LEHB61-.LFB9482
	.uleb128 .LEHE61-.LEHB61
	.uleb128 .L582-.LFB9482
	.uleb128 0
	.uleb128 .LEHB62-.LFB9482
	.uleb128 .LEHE62-.LEHB62
	.uleb128 .L583-.LFB9482
	.uleb128 0
	.uleb128 .LEHB63-.LFB9482
	.uleb128 .LEHE63-.LEHB63
	.uleb128 .L582-.LFB9482
	.uleb128 0
	.uleb128 .LEHB64-.LFB9482
	.uleb128 .LEHE64-.LEHB64
	.uleb128 .L584-.LFB9482
	.uleb128 0
	.uleb128 .LEHB65-.LFB9482
	.uleb128 .LEHE65-.LEHB65
	.uleb128 .L582-.LFB9482
	.uleb128 0
	.uleb128 .LEHB66-.LFB9482
	.uleb128 .LEHE66-.LEHB66
	.uleb128 .L585-.LFB9482
	.uleb128 0
	.uleb128 .LEHB67-.LFB9482
	.uleb128 .LEHE67-.LEHB67
	.uleb128 .L582-.LFB9482
	.uleb128 0
	.uleb128 .LEHB68-.LFB9482
	.uleb128 .LEHE68-.LEHB68
	.uleb128 .L586-.LFB9482
	.uleb128 0
	.uleb128 .LEHB69-.LFB9482
	.uleb128 .LEHE69-.LEHB69
	.uleb128 .L588-.LFB9482
	.uleb128 0
	.uleb128 .LEHB70-.LFB9482
	.uleb128 .LEHE70-.LEHB70
	.uleb128 .L587-.LFB9482
	.uleb128 0
	.uleb128 .LEHB71-.LFB9482
	.uleb128 .LEHE71-.LEHB71
	.uleb128 .L588-.LFB9482
	.uleb128 0
	.uleb128 .LEHB72-.LFB9482
	.uleb128 .LEHE72-.LEHB72
	.uleb128 .L589-.LFB9482
	.uleb128 0
	.uleb128 .LEHB73-.LFB9482
	.uleb128 .LEHE73-.LEHB73
	.uleb128 .L590-.LFB9482
	.uleb128 0
	.uleb128 .LEHB74-.LFB9482
	.uleb128 .LEHE74-.LEHB74
	.uleb128 .L591-.LFB9482
	.uleb128 0
	.uleb128 .LEHB75-.LFB9482
	.uleb128 .LEHE75-.LEHB75
	.uleb128 .L588-.LFB9482
	.uleb128 0
	.uleb128 .LEHB76-.LFB9482
	.uleb128 .LEHE76-.LEHB76
	.uleb128 .L592-.LFB9482
	.uleb128 0
	.uleb128 .LEHB77-.LFB9482
	.uleb128 .LEHE77-.LEHB77
	.uleb128 .L593-.LFB9482
	.uleb128 0
	.uleb128 .LEHB78-.LFB9482
	.uleb128 .LEHE78-.LEHB78
	.uleb128 0
	.uleb128 0
.LLSDACSE9482:
	.text
	.seh_endproc
	.section	.text$_ZN9__gnu_cxx11char_traitsIcE6lengthEPKc,"x"
	.linkonce discard
	.align 2
	.globl	_ZN9__gnu_cxx11char_traitsIcE6lengthEPKc
	.def	_ZN9__gnu_cxx11char_traitsIcE6lengthEPKc;	.scl	2;	.type	32;	.endef
	.seh_proc	_ZN9__gnu_cxx11char_traitsIcE6lengthEPKc
_ZN9__gnu_cxx11char_traitsIcE6lengthEPKc:
.LFB9620:
	pushq	%rbp
	.seh_pushreg	%rbp
	movq	%rsp, %rbp
	.seh_setframe	%rbp, 0
	subq	$48, %rsp
	.seh_stackalloc	48
	.seh_endprologue
	movq	%rcx, 16(%rbp)
	movq	$0, -8(%rbp)
	jmp	.L596
.L597:
	addq	$1, -8(%rbp)
.L596:
	movb	$0, -9(%rbp)
	movq	16(%rbp), %rdx
	movq	-8(%rbp), %rax
	leaq	(%rdx,%rax), %rcx
	leaq	-9(%rbp), %rax
	movq	%rax, %rdx
	call	_ZN9__gnu_cxx11char_traitsIcE2eqERKcS3_
	xorl	$1, %eax
	testb	%al, %al
	jne	.L597
	movq	-8(%rbp), %rax
	addq	$48, %rsp
	popq	%rbp
	ret
	.seh_endproc
	.section	.text$_ZNKSt7__cxx1112basic_stringIcSt11char_traitsIcESaIcEE5c_strEv,"x"
	.linkonce discard
	.align 2
	.globl	_ZNKSt7__cxx1112basic_stringIcSt11char_traitsIcESaIcEE5c_strEv
	.def	_ZNKSt7__cxx1112basic_stringIcSt11char_traitsIcESaIcEE5c_strEv;	.scl	2;	.type	32;	.endef
	.seh_proc	_ZNKSt7__cxx1112basic_stringIcSt11char_traitsIcESaIcEE5c_strEv
_ZNKSt7__cxx1112basic_stringIcSt11char_traitsIcESaIcEE5c_strEv:
.LFB9646:
	pushq	%rbp
	.seh_pushreg	%rbp
	movq	%rsp, %rbp
	.seh_setframe	%rbp, 0
	subq	$32, %rsp
	.seh_stackalloc	32
	.seh_endprologue
	movq	%rcx, 16(%rbp)
	movq	16(%rbp), %rax
	movq	%rax, %rcx
	call	_ZNKSt7__cxx1112basic_stringIcSt11char_traitsIcESaIcEE7_M_dataEv
	addq	$32, %rsp
	popq	%rbp
	ret
	.seh_endproc
	.section	.text$_ZNSt7__cxx1112basic_stringIcSt11char_traitsIcESaIcEE12_Alloc_hiderD1Ev,"x"
	.linkonce discard
	.align 2
	.globl	_ZNSt7__cxx1112basic_stringIcSt11char_traitsIcESaIcEE12_Alloc_hiderD1Ev
	.def	_ZNSt7__cxx1112basic_stringIcSt11char_traitsIcESaIcEE12_Alloc_hiderD1Ev;	.scl	2;	.type	32;	.endef
	.seh_proc	_ZNSt7__cxx1112basic_stringIcSt11char_traitsIcESaIcEE12_Alloc_hiderD1Ev
_ZNSt7__cxx1112basic_stringIcSt11char_traitsIcESaIcEE12_Alloc_hiderD1Ev:
.LFB9722:
	pushq	%rbp
	.seh_pushreg	%rbp
	movq	%rsp, %rbp
	.seh_setframe	%rbp, 0
	subq	$48, %rsp
	.seh_stackalloc	48
	.seh_endprologue
	movq	%rcx, 16(%rbp)
	movq	16(%rbp), %rax
	movq	%rax, -8(%rbp)
	movq	-8(%rbp), %rax
	movq	%rax, %rcx
	call	_ZNSt15__new_allocatorIcED2Ev
	nop
	nop
	addq	$48, %rsp
	popq	%rbp
	ret
	.seh_endproc
	.section	.text$_ZNSt7__cxx1112basic_stringIcSt11char_traitsIcESaIcEEC1Ev,"x"
	.linkonce discard
	.align 2
	.globl	_ZNSt7__cxx1112basic_stringIcSt11char_traitsIcESaIcEEC1Ev
	.def	_ZNSt7__cxx1112basic_stringIcSt11char_traitsIcESaIcEEC1Ev;	.scl	2;	.type	32;	.endef
	.seh_proc	_ZNSt7__cxx1112basic_stringIcSt11char_traitsIcESaIcEEC1Ev
_ZNSt7__cxx1112basic_stringIcSt11char_traitsIcESaIcEEC1Ev:
.LFB9724:
	pushq	%rbp
	.seh_pushreg	%rbp
	pushq	%rbx
	.seh_pushreg	%rbx
	subq	$72, %rsp
	.seh_stackalloc	72
	leaq	64(%rsp), %rbp
	.seh_setframe	%rbp, 64
	.seh_endprologue
	movq	%rcx, 32(%rbp)
	movq	32(%rbp), %rbx
	leaq	-17(%rbp), %rax
	movq	%rax, -16(%rbp)
	nop
	nop
	movq	32(%rbp), %rax
	movq	%rax, %rcx
	call	_ZNSt7__cxx1112basic_stringIcSt11char_traitsIcESaIcEE13_M_local_dataEv
	leaq	-17(%rbp), %rdx
	movq	%rdx, %r8
	movq	%rax, %rdx
	movq	%rbx, %rcx
	call	_ZNSt7__cxx1112basic_stringIcSt11char_traitsIcESaIcEE12_Alloc_hiderC1EPcOS3_
	leaq	-17(%rbp), %rax
	movq	%rax, %rcx
	call	_ZNSt15__new_allocatorIcED2Ev
	nop
	movq	32(%rbp), %rax
	movq	%rax, -8(%rbp)
	nop
	movq	32(%rbp), %rax
	movl	$0, %edx
	movq	%rax, %rcx
	call	_ZNSt7__cxx1112basic_stringIcSt11char_traitsIcESaIcEE13_M_set_lengthEy
	nop
	addq	$72, %rsp
	popq	%rbx
	popq	%rbp
	ret
	.seh_handler	__gxx_personality_seh0, @unwind, @except
	.seh_handlerdata
.LLSDA9724:
	.byte	0xff
	.byte	0xff
	.byte	0x1
	.uleb128 .LLSDACSE9724-.LLSDACSB9724
.LLSDACSB9724:
.LLSDACSE9724:
	.section	.text$_ZNSt7__cxx1112basic_stringIcSt11char_traitsIcESaIcEEC1Ev,"x"
	.linkonce discard
	.seh_endproc
	.section	.text$_ZNSt7__cxx1112basic_stringIcSt11char_traitsIcESaIcEED1Ev,"x"
	.linkonce discard
	.align 2
	.globl	_ZNSt7__cxx1112basic_stringIcSt11char_traitsIcESaIcEED1Ev
	.def	_ZNSt7__cxx1112basic_stringIcSt11char_traitsIcESaIcEED1Ev;	.scl	2;	.type	32;	.endef
	.seh_proc	_ZNSt7__cxx1112basic_stringIcSt11char_traitsIcESaIcEED1Ev
_ZNSt7__cxx1112basic_stringIcSt11char_traitsIcESaIcEED1Ev:
.LFB9727:
	pushq	%rbp
	.seh_pushreg	%rbp
	movq	%rsp, %rbp
	.seh_setframe	%rbp, 0
	subq	$32, %rsp
	.seh_stackalloc	32
	.seh_endprologue
	movq	%rcx, 16(%rbp)
	movq	16(%rbp), %rax
	movq	%rax, %rcx
	call	_ZNSt7__cxx1112basic_stringIcSt11char_traitsIcESaIcEE10_M_disposeEv
	movq	16(%rbp), %rax
	movq	%rax, %rcx
	call	_ZNSt7__cxx1112basic_stringIcSt11char_traitsIcESaIcEE12_Alloc_hiderD1Ev
	nop
	addq	$32, %rsp
	popq	%rbp
	ret
	.seh_handler	__gxx_personality_seh0, @unwind, @except
	.seh_handlerdata
.LLSDA9727:
	.byte	0xff
	.byte	0xff
	.byte	0x1
	.uleb128 .LLSDACSE9727-.LLSDACSB9727
.LLSDACSB9727:
.LLSDACSE9727:
	.section	.text$_ZNSt7__cxx1112basic_stringIcSt11char_traitsIcESaIcEED1Ev,"x"
	.linkonce discard
	.seh_endproc
	.section	.text$_ZNSt8__detail18__to_chars_10_implIjEEvPcjT_,"x"
	.linkonce discard
	.globl	_ZNSt8__detail18__to_chars_10_implIjEEvPcjT_
	.def	_ZNSt8__detail18__to_chars_10_implIjEEvPcjT_;	.scl	2;	.type	32;	.endef
	.seh_proc	_ZNSt8__detail18__to_chars_10_implIjEEvPcjT_
_ZNSt8__detail18__to_chars_10_implIjEEvPcjT_:
.LFB9728:
	pushq	%rbp
	.seh_pushreg	%rbp
	movq	%rsp, %rbp
	.seh_setframe	%rbp, 0
	subq	$224, %rsp
	.seh_stackalloc	224
	.seh_endprologue
	movq	%rcx, 16(%rbp)
	movl	%edx, 24(%rbp)
	movl	%r8d, 32(%rbp)
	movabsq	$3688503277381496880, %rax
	movabsq	$3976738051646829616, %rdx
	movq	%rax, -224(%rbp)
	movq	%rdx, -216(%rbp)
	movabsq	$3544667369688283184, %rax
	movabsq	$3832902143785906737, %rdx
	movq	%rax, -208(%rbp)
	movq	%rdx, -200(%rbp)
	movabsq	$4121136918051239473, %rax
	movabsq	$3689066235924983858, %rdx
	movq	%rax, -192(%rbp)
	movq	%rdx, -184(%rbp)
	movabsq	$3977301010190316594, %rax
	movabsq	$3545230328231770162, %rdx
	movq	%rax, -176(%rbp)
	movq	%rdx, -168(%rbp)
	movabsq	$3833465102329393715, %rax
	movabsq	$4121699876594726451, %rdx
	movq	%rax, -160(%rbp)
	movq	%rdx, -152(%rbp)
	movabsq	$3689629194468470836, %rax
	movabsq	$3977863968733803572, %rdx
	movq	%rax, -144(%rbp)
	movq	%rdx, -136(%rbp)
	movabsq	$3545793286775257140, %rax
	movabsq	$3834028060872880693, %rdx
	movq	%rax, -128(%rbp)
	movq	%rdx, -120(%rbp)
	movabsq	$4122262835138213429, %rax
	movabsq	$3690192153011957814, %rdx
	movq	%rax, -112(%rbp)
	movq	%rdx, -104(%rbp)
	movabsq	$3978426927277290550, %rax
	movabsq	$3546356245318744118, %rdx
	movq	%rax, -96(%rbp)
	movq	%rdx, -88(%rbp)
	movabsq	$3834591019416367671, %rax
	movabsq	$4122825793681700407, %rdx
	movq	%rax, -80(%rbp)
	movq	%rdx, -72(%rbp)
	movabsq	$3690755111555444792, %rax
	movabsq	$3978989885820777528, %rdx
	movq	%rax, -64(%rbp)
	movq	%rdx, -56(%rbp)
	movabsq	$3546919203862231096, %rax
	movabsq	$3835153977959854649, %rdx
	movq	%rax, -48(%rbp)
	movq	%rdx, -40(%rbp)
	movabsq	$4122263930388298034, %rax
	movabsq	$16106987313379638, %rdx
	movq	%rax, -39(%rbp)
	movq	%rdx, -31(%rbp)
	movl	24(%rbp), %eax
	subl	$1, %eax
	movl	%eax, -4(%rbp)
	jmp	.L605
.L606:
	movl	32(%rbp), %ecx
	movl	%ecx, %eax
	imulq	$1374389535, %rax, %rax
	shrq	$32, %rax
	shrl	$5, %eax
	imull	$100, %eax, %edx
	movl	%ecx, %eax
	subl	%edx, %eax
	addl	%eax, %eax
	movl	%eax, -12(%rbp)
	movl	32(%rbp), %eax
	movl	%eax, %eax
	imulq	$1374389535, %rax, %rax
	shrq	$32, %rax
	shrl	$5, %eax
	movl	%eax, 32(%rbp)
	movl	-12(%rbp), %eax
	leal	1(%rax), %ecx
	movl	-4(%rbp), %edx
	movq	16(%rbp), %rax
	addq	%rax, %rdx
	movl	%ecx, %eax
	movzbl	-224(%rbp,%rax), %eax
	movb	%al, (%rdx)
	movl	-4(%rbp), %eax
	subl	$1, %eax
	movl	%eax, %edx
	movq	16(%rbp), %rax
	addq	%rax, %rdx
	movl	-12(%rbp), %eax
	movzbl	-224(%rbp,%rax), %eax
	movb	%al, (%rdx)
	subl	$2, -4(%rbp)
.L605:
	cmpl	$99, 32(%rbp)
	ja	.L606
	cmpl	$9, 32(%rbp)
	jbe	.L607
	movl	32(%rbp), %eax
	addl	%eax, %eax
	movl	%eax, -8(%rbp)
	movl	-8(%rbp), %eax
	leal	1(%rax), %ecx
	movq	16(%rbp), %rax
	leaq	1(%rax), %rdx
	movl	%ecx, %eax
	movzbl	-224(%rbp,%rax), %eax
	movb	%al, (%rdx)
	movl	-8(%rbp), %eax
	movzbl	-224(%rbp,%rax), %edx
	movq	16(%rbp), %rax
	movb	%dl, (%rax)
	jmp	.L609
.L607:
	movl	32(%rbp), %eax
	addl	$48, %eax
	movl	%eax, %edx
	movq	16(%rbp), %rax
	movb	%dl, (%rax)
.L609:
	nop
	addq	$224, %rsp
	popq	%rbp
	ret
	.seh_endproc
	.section	.text$_ZZNSt7__cxx1112basic_stringIcSt11char_traitsIcESaIcEE22__resize_and_overwriteIZNS_9to_stringEiEUlPcyE_EEvyT_EN11_TerminatorD1Ev,"x"
	.linkonce discard
	.align 2
	.globl	_ZZNSt7__cxx1112basic_stringIcSt11char_traitsIcESaIcEE22__resize_and_overwriteIZNS_9to_stringEiEUlPcyE_EEvyT_EN11_TerminatorD1Ev
	.def	_ZZNSt7__cxx1112basic_stringIcSt11char_traitsIcESaIcEE22__resize_and_overwriteIZNS_9to_stringEiEUlPcyE_EEvyT_EN11_TerminatorD1Ev;	.scl	2;	.type	32;	.endef
	.seh_proc	_ZZNSt7__cxx1112basic_stringIcSt11char_traitsIcESaIcEE22__resize_and_overwriteIZNS_9to_stringEiEUlPcyE_EEvyT_EN11_TerminatorD1Ev
_ZZNSt7__cxx1112basic_stringIcSt11char_traitsIcESaIcEE22__resize_and_overwriteIZNS_9to_stringEiEUlPcyE_EEvyT_EN11_TerminatorD1Ev:
.LFB9732:
	pushq	%rbp
	.seh_pushreg	%rbp
	movq	%rsp, %rbp
	.seh_setframe	%rbp, 0
	subq	$32, %rsp
	.seh_stackalloc	32
	.seh_endprologue
	movq	%rcx, 16(%rbp)
	movq	16(%rbp), %rax
	movq	(%rax), %rax
	movq	16(%rbp), %rdx
	movq	8(%rdx), %rdx
	movq	%rax, %rcx
	call	_ZNSt7__cxx1112basic_stringIcSt11char_traitsIcESaIcEE13_M_set_lengthEy
	nop
	addq	$32, %rsp
	popq	%rbp
	ret
	.seh_handler	__gxx_personality_seh0, @unwind, @except
	.seh_handlerdata
.LLSDA9732:
	.byte	0xff
	.byte	0xff
	.byte	0x1
	.uleb128 .LLSDACSE9732-.LLSDACSB9732
.LLSDACSB9732:
.LLSDACSE9732:
	.section	.text$_ZZNSt7__cxx1112basic_stringIcSt11char_traitsIcESaIcEE22__resize_and_overwriteIZNS_9to_stringEiEUlPcyE_EEvyT_EN11_TerminatorD1Ev,"x"
	.linkonce discard
	.seh_endproc
	.section	.text$_ZNSt7__cxx1112basic_stringIcSt11char_traitsIcESaIcEE22__resize_and_overwriteIZNS_9to_stringEiEUlPcyE_EEvyT_,"x"
	.linkonce discard
	.align 2
	.globl	_ZNSt7__cxx1112basic_stringIcSt11char_traitsIcESaIcEE22__resize_and_overwriteIZNS_9to_stringEiEUlPcyE_EEvyT_
	.def	_ZNSt7__cxx1112basic_stringIcSt11char_traitsIcESaIcEE22__resize_and_overwriteIZNS_9to_stringEiEUlPcyE_EEvyT_;	.scl	2;	.type	32;	.endef
	.seh_proc	_ZNSt7__cxx1112basic_stringIcSt11char_traitsIcESaIcEE22__resize_and_overwriteIZNS_9to_stringEiEUlPcyE_EEvyT_
_ZNSt7__cxx1112basic_stringIcSt11char_traitsIcESaIcEE22__resize_and_overwriteIZNS_9to_stringEiEUlPcyE_EEvyT_:
.LFB9729:
	pushq	%rbp
	.seh_pushreg	%rbp
	pushq	%rbx
	.seh_pushreg	%rbx
	subq	$72, %rsp
	.seh_stackalloc	72
	leaq	64(%rsp), %rbp
	.seh_setframe	%rbp, 64
	.seh_endprologue
	movq	%rcx, 32(%rbp)
	movq	%rdx, 40(%rbp)
	movq	%r8, %rbx
	movq	40(%rbp), %rdx
	movq	32(%rbp), %rax
	movq	%rax, %rcx
	call	_ZNSt7__cxx1112basic_stringIcSt11char_traitsIcESaIcEE7reserveEy
	movq	32(%rbp), %rax
	movq	%rax, %rcx
	call	_ZNKSt7__cxx1112basic_stringIcSt11char_traitsIcESaIcEE7_M_dataEv
	movq	%rax, -8(%rbp)
	pxor	%xmm0, %xmm0
	movups	%xmm0, -32(%rbp)
	movq	32(%rbp), %rax
	movq	%rax, -32(%rbp)
	movq	%rbx, %rcx
	movq	40(%rbp), %rdx
	movq	-8(%rbp), %rax
	movq	%rdx, %r8
	movq	%rax, %rdx
	call	_ZZNSt7__cxx119to_stringEiENKUlPcyE_clES0_y
	movq	%rax, -16(%rbp)
	movq	-16(%rbp), %rax
	movq	%rax, -24(%rbp)
	movq	-24(%rbp), %rax
	cmpq	%rax, 40(%rbp)
	leaq	-32(%rbp), %rax
	movq	%rax, %rcx
	call	_ZZNSt7__cxx1112basic_stringIcSt11char_traitsIcESaIcEE22__resize_and_overwriteIZNS_9to_stringEiEUlPcyE_EEvyT_EN11_TerminatorD1Ev
	nop
	addq	$72, %rsp
	popq	%rbx
	popq	%rbp
	ret
	.seh_endproc
	.section	.text$_ZNSt7__cxx1112basic_stringIcSt11char_traitsIcESaIcEEC1EOS4_,"x"
	.linkonce discard
	.align 2
	.globl	_ZNSt7__cxx1112basic_stringIcSt11char_traitsIcESaIcEEC1EOS4_
	.def	_ZNSt7__cxx1112basic_stringIcSt11char_traitsIcESaIcEEC1EOS4_;	.scl	2;	.type	32;	.endef
	.seh_proc	_ZNSt7__cxx1112basic_stringIcSt11char_traitsIcESaIcEEC1EOS4_
_ZNSt7__cxx1112basic_stringIcSt11char_traitsIcESaIcEEC1EOS4_:
.LFB9735:
	pushq	%rbp
	.seh_pushreg	%rbp
	pushq	%rsi
	.seh_pushreg	%rsi
	pushq	%rbx
	.seh_pushreg	%rbx
	subq	$64, %rsp
	.seh_stackalloc	64
	leaq	64(%rsp), %rbp
	.seh_setframe	%rbp, 64
	.seh_endprologue
	movq	%rcx, 32(%rbp)
	movq	%rdx, 40(%rbp)
	movq	32(%rbp), %rbx
	movq	40(%rbp), %rax
	movq	%rax, %rcx
	call	_ZNSt7__cxx1112basic_stringIcSt11char_traitsIcESaIcEE16_M_get_allocatorEv
	movq	%rax, -8(%rbp)
	movq	-8(%rbp), %rsi
	movq	32(%rbp), %rax
	movq	%rax, %rcx
	call	_ZNSt7__cxx1112basic_stringIcSt11char_traitsIcESaIcEE13_M_local_dataEv
	movq	%rsi, %r8
	movq	%rax, %rdx
	movq	%rbx, %rcx
	call	_ZNSt7__cxx1112basic_stringIcSt11char_traitsIcESaIcEE12_Alloc_hiderC1EPcOS3_
	movq	40(%rbp), %rax
	movq	%rax, %rcx
	call	_ZNKSt7__cxx1112basic_stringIcSt11char_traitsIcESaIcEE11_M_is_localEv
	testb	%al, %al
	je	.L616
	movq	32(%rbp), %rax
	movq	%rax, -16(%rbp)
	nop
	movq	40(%rbp), %rax
	movq	%rax, %rcx
	call	_ZNKSt7__cxx1112basic_stringIcSt11char_traitsIcESaIcEE6lengthEv
	leaq	1(%rax), %rcx
	movq	40(%rbp), %rax
	leaq	16(%rax), %rdx
	movq	32(%rbp), %rax
	addq	$16, %rax
	movq	%rcx, %r8
	movq	%rax, %rcx
	call	_ZNSt11char_traitsIcE4copyEPcPKcy
	jmp	.L617
.L616:
	movq	40(%rbp), %rax
	movq	%rax, %rcx
	call	_ZNKSt7__cxx1112basic_stringIcSt11char_traitsIcESaIcEE7_M_dataEv
	movq	%rax, %rdx
	movq	32(%rbp), %rax
	movq	%rax, %rcx
	call	_ZNSt7__cxx1112basic_stringIcSt11char_traitsIcESaIcEE7_M_dataEPc
	movq	40(%rbp), %rax
	movq	16(%rax), %rdx
	movq	32(%rbp), %rax
	movq	%rax, %rcx
	call	_ZNSt7__cxx1112basic_stringIcSt11char_traitsIcESaIcEE11_M_capacityEy
.L617:
	movq	40(%rbp), %rax
	movq	%rax, %rcx
	call	_ZNKSt7__cxx1112basic_stringIcSt11char_traitsIcESaIcEE6lengthEv
	movq	%rax, %rdx
	movq	32(%rbp), %rax
	movq	%rax, %rcx
	call	_ZNSt7__cxx1112basic_stringIcSt11char_traitsIcESaIcEE9_M_lengthEy
	movq	40(%rbp), %rax
	movq	%rax, -24(%rbp)
	movq	-24(%rbp), %rax
	movq	%rax, %rcx
